(dp0
(S'attitude'
p1
S'pitch'
p2
tp3
cpint
_build_quantity
p4
(cnumpy.core.multiarray
scalar
p5
(cnumpy
dtype
p6
(S'f8'
p7
I0
I1
tp8
Rp9
(I3
S'<'
p10
NNNI-1
I-1
I0
tp11
bS'\x05\xf4\xd4M\xd9\x8f\xcf?'
p12
tp13
Rp14
ccopy_reg
_reconstructor
p15
(cpint.util
UnitsContainer
p16
c__builtin__
object
p17
Ntp18
Rp19
(dp20
V_d
p21
g15
(cpint.util
udict
p22
c__builtin__
dict
p23
(dp24
Vradian
p25
F1.0
stp26
Rp27
sV_hash
p28
I-8973016416414178273
sbtp29
Rp30
s(S'acceleration'
p31
S'z'
p32
tp33
g4
(g5
(g9
S'\x00\x00\x00\xe0\xaaP\x86?'
p34
tp35
Rp36
g15
(g16
g17
Ntp37
Rp38
(dp39
g21
g15
(g22
g23
(dp40
Vsecond
p41
F2.0
sVmeter
p42
F1.0
stp43
Rp44
sg28
I1410516519192770575
sbtp45
Rp46
s(S'gravity'
p47
S'y'
p48
tp49
g4
(g5
(g9
S'\x00\x00\x00\xa08>\xcf\xbf'
p50
tp51
Rp52
g15
(g16
g17
Ntp53
Rp54
(dp55
g21
g15
(g22
g23
(dp56
g41
F2.0
sg42
F1.0
stp57
Rp58
sg28
I1410516519192770575
sbtp59
Rp60
s(g31
S'x'
p61
tp62
g4
(g5
(g9
S'\x00\x00\x00@\xb6<j\xbf'
p63
tp64
Rp65
g38
tp66
Rp67
s(g47
g61
tp68
g4
(g5
(g9
S'\x00\x00\x00@i4\x92\xbf'
p69
tp70
Rp71
g54
tp72
Rp73
s(g31
g48
tp74
g4
(g5
(g9
S'\x00\x00\x00\xa0\xb5#T\xbf'
p75
tp76
Rp77
g38
tp78
Rp79
s(g47
g32
tp80
g4
(g5
(g9
S'\x00\x00\x00\xa0\xe2\x06\xef\xbf'
p81
tp82
Rp83
g54
tp84
Rp85
s(g1
S'roll'
p86
tp87
g4
(g5
(g9
S'\xb4\xb0!\xbd\t\xc6\x92\xbf'
p88
tp89
Rp90
g19
tp91
Rp92
s(g1
S'yaw'
p93
tp94
g4
(g5
(g9
S'\x80\xd4\x05\xb7\x02\xe6\xc9?'
p95
tp96
Rp97
g19
tp98
Rp99
s.(dp0
(S'attitude'
p1
S'pitch'
p2
tp3
cpint
_build_quantity
p4
(cnumpy.core.multiarray
scalar
p5
(cnumpy
dtype
p6
(S'f8'
p7
I0
I1
tp8
Rp9
(I3
S'<'
p10
NNNI-1
I-1
I0
tp11
bS'xe-\x84a}\xcd?'
p12
tp13
Rp14
ccopy_reg
_reconstructor
p15
(cpint.util
UnitsContainer
p16
c__builtin__
object
p17
Ntp18
Rp19
(dp20
V_d
p21
g15
(cpint.util
udict
p22
c__builtin__
dict
p23
(dp24
Vradian
p25
F1.0
stp26
Rp27
sV_hash
p28
I-8973016416414178273
sbtp29
Rp30
s(S'acceleration'
p31
S'z'
p32
tp33
g4
(g5
(g9
S'\x00\x00\x00 }\xaf\x90\xbf'
p34
tp35
Rp36
g15
(g16
g17
Ntp37
Rp38
(dp39
g21
g15
(g22
g23
(dp40
Vsecond
p41
F2.0
sVmeter
p42
F1.0
stp43
Rp44
sg28
I1410516519192770575
sbtp45
Rp46
s(S'gravity'
p47
S'y'
p48
tp49
g4
(g5
(g9
S'\x00\x00\x00\xc0\xc5:\xcd\xbf'
p50
tp51
Rp52
g15
(g16
g17
Ntp53
Rp54
(dp55
g21
g15
(g22
g23
(dp56
g41
F2.0
sg42
F1.0
stp57
Rp58
sg28
I1410516519192770575
sbtp59
Rp60
s(g31
S'x'
p61
tp62
g4
(g5
(g9
S'\x00\x00\x00 \x8f\x88@?'
p63
tp64
Rp65
g38
tp66
Rp67
s(g47
g61
tp68
g4
(g5
(g9
S'\x00\x00\x00\x00\x89\x08\x87\xbf'
p69
tp70
Rp71
g54
tp72
Rp73
s(g31
g48
tp74
g4
(g5
(g9
S'\x00\x00\x00 \x92nj\xbf'
p75
tp76
Rp77
g38
tp78
Rp79
s(g47
g32
tp80
g4
(g5
(g9
S"\x00\x00\x00 \x04'\xef\xbf"
p81
tp82
Rp83
g54
tp84
Rp85
s(g1
S'roll'
p86
tp87
g4
(g5
(g9
S'\x8bm \xc1\xb2\xa8\x87\xbf'
p88
tp89
Rp90
g19
tp91
Rp92
s(g1
S'yaw'
p93
tp94
g4
(g5
(g9
S'4k\xb2\xd6\xc6#\xcb?'
p95
tp96
Rp97
g19
tp98
Rp99
s.(dp0
(S'attitude'
p1
S'pitch'
p2
tp3
cpint
_build_quantity
p4
(cnumpy.core.multiarray
scalar
p5
(cnumpy
dtype
p6
(S'f8'
p7
I0
I1
tp8
Rp9
(I3
S'<'
p10
NNNI-1
I-1
I0
tp11
bS'\xfc\xf9\xc4\xef\x81D\xd3?'
p12
tp13
Rp14
ccopy_reg
_reconstructor
p15
(cpint.util
UnitsContainer
p16
c__builtin__
object
p17
Ntp18
Rp19
(dp20
V_d
p21
g15
(cpint.util
udict
p22
c__builtin__
dict
p23
(dp24
Vradian
p25
F1.0
stp26
Rp27
sV_hash
p28
I-8973016416414178273
sbtp29
Rp30
s(S'acceleration'
p31
S'z'
p32
tp33
g4
(g5
(g9
S'\x00\x00\x00\xc0\xb2G\xbb\xbf'
p34
tp35
Rp36
g15
(g16
g17
Ntp37
Rp38
(dp39
g21
g15
(g22
g23
(dp40
Vsecond
p41
F2.0
sVmeter
p42
F1.0
stp43
Rp44
sg28
I1410516519192770575
sbtp45
Rp46
s(S'gravity'
p47
S'y'
p48
tp49
g4
(g5
(g9
S'\x00\x00\x00\x80\x99\x98\xd2\xbf'
p50
tp51
Rp52
g15
(g16
g17
Ntp53
Rp54
(dp55
g21
g15
(g22
g23
(dp56
g41
F2.0
sg42
F1.0
stp57
Rp58
sg28
I1410516519192770575
sbtp59
Rp60
s(g31
S'x'
p61
tp62
g4
(g5
(g9
S'\x00\x00\x00 CR\x98?'
p63
tp64
Rp65
g38
tp66
Rp67
s(g47
g61
tp68
g4
(g5
(g9
S'\x00\x00\x00\xc0\x90\xc4\xb1\xbf'
p69
tp70
Rp71
g54
tp72
Rp73
s(g31
g48
tp74
g4
(g5
(g9
S'\x00\x00\x00`\x97\xf1\x92?'
p75
tp76
Rp77
g38
tp78
Rp79
s(g47
g32
tp80
g4
(g5
(g9
S'\x00\x00\x00\xa0\xe9\x89\xee\xbf'
p81
tp82
Rp83
g54
tp84
Rp85
s(g1
S'roll'
p86
tp87
g4
(g5
(g9
S'\xb8#cb\x84|\xb3\xbf'
p88
tp89
Rp90
g19
tp91
Rp92
s(g1
S'yaw'
p93
tp94
g4
(g5
(g9
S'.\xa6S\x1e\x0ce\xcf?'
p95
tp96
Rp97
g19
tp98
Rp99
s.(dp0
(S'attitude'
p1
S'pitch'
p2
tp3
cpint
_build_quantity
p4
(cnumpy.core.multiarray
scalar
p5
(cnumpy
dtype
p6
(S'f8'
p7
I0
I1
tp8
Rp9
(I3
S'<'
p10
NNNI-1
I-1
I0
tp11
bS'\xfb\x82\xcfAZ\x97\xf1?'
p12
tp13
Rp14
ccopy_reg
_reconstructor
p15
(cpint.util
UnitsContainer
p16
c__builtin__
object
p17
Ntp18
Rp19
(dp20
V_d
p21
g15
(cpint.util
udict
p22
c__builtin__
dict
p23
(dp24
Vradian
p25
F1.0
stp26
Rp27
sV_hash
p28
I-8973016416414178273
sbtp29
Rp30
s(S'acceleration'
p31
S'z'
p32
tp33
g4
(g5
(g9
S'\x00\x00\x00\xc0\xa6ob\xbf'
p34
tp35
Rp36
g15
(g16
g17
Ntp37
Rp38
(dp39
g21
g15
(g22
g23
(dp40
Vsecond
p41
F2.0
sVmeter
p42
F1.0
stp43
Rp44
sg28
I1410516519192770575
sbtp45
Rp46
s(S'gravity'
p47
S'y'
p48
tp49
g4
(g5
(g9
S'\x00\x00\x00 \xbb\x82\xec\xbf'
p50
tp51
Rp52
g15
(g16
g17
Ntp53
Rp54
(dp55
g21
g15
(g22
g23
(dp56
g41
F2.0
sg42
F1.0
stp57
Rp58
sg28
I1410516519192770575
sbtp59
Rp60
s(g31
S'x'
p61
tp62
g4
(g5
(g9
S'\x00\x00\x00`\xa6,\x82\xbf'
p63
tp64
Rp65
g38
tp66
Rp67
s(g47
g61
tp68
g4
(g5
(g9
S'\x00\x00\x00`f\xcda\xbf'
p69
tp70
Rp71
g54
tp72
Rp73
s(g31
g48
tp74
g4
(g5
(g9
S'\x00\x00\x00@bG\x99?'
p75
tp76
Rp77
g38
tp78
Rp79
s(g47
g32
tp80
g4
(g5
(g9
S'\x00\x00\x00\xc0\xa0\x0f\xdd\xbf'
p81
tp82
Rp83
g54
tp84
Rp85
s(g1
S'roll'
p86
tp87
g4
(g5
(g9
S'X\x0c\xbd\xbd@\x9as\xbf'
p88
tp89
Rp90
g19
tp91
Rp92
s(g1
S'yaw'
p93
tp94
g4
(g5
(g9
S'\x84\xe1b\xfaoP\xa3?'
p95
tp96
Rp97
g19
tp98
Rp99
s.(dp0
(S'attitude'
p1
S'pitch'
p2
tp3
cpint
_build_quantity
p4
(cnumpy.core.multiarray
scalar
p5
(cnumpy
dtype
p6
(S'f8'
p7
I0
I1
tp8
Rp9
(I3
S'<'
p10
NNNI-1
I-1
I0
tp11
bS'\xedd\xfe\x19\xcdK\xf8?'
p12
tp13
Rp14
ccopy_reg
_reconstructor
p15
(cpint.util
UnitsContainer
p16
c__builtin__
object
p17
Ntp18
Rp19
(dp20
V_d
p21
g15
(cpint.util
udict
p22
c__builtin__
dict
p23
(dp24
Vradian
p25
F1.0
stp26
Rp27
sV_hash
p28
I-8973016416414178273
sbtp29
Rp30
s(S'acceleration'
p31
S'z'
p32
tp33
g4
(g5
(g9
S'\x00\x00\x00\xe0\x89\xdb\xa0?'
p34
tp35
Rp36
g15
(g16
g17
Ntp37
Rp38
(dp39
g21
g15
(g22
g23
(dp40
Vsecond
p41
F2.0
sVmeter
p42
F1.0
stp43
Rp44
sg28
I1410516519192770575
sbtp45
Rp46
s(S'gravity'
p47
S'y'
p48
tp49
g4
(g5
(g9
S'\x00\x00\x00\xc0\x81\xf3\xef\xbf'
p50
tp51
Rp52
g15
(g16
g17
Ntp53
Rp54
(dp55
g21
g15
(g22
g23
(dp56
g41
F2.0
sg42
F1.0
stp57
Rp58
sg28
I1410516519192770575
sbtp59
Rp60
s(g31
S'x'
p61
tp62
g4
(g5
(g9
S'\x00\x00\x00\x00\x8b\x18\x83\xbf'
p63
tp64
Rp65
g38
tp66
Rp67
s(g47
g61
tp68
g4
(g5
(g9
S'\x00\x00\x00\x00\xd4\x9dj\xbf'
p69
tp70
Rp71
g54
tp72
Rp73
s(g31
g48
tp74
g4
(g5
(g9
S'\x00\x00\x00\xe098\x9c?'
p75
tp76
Rp77
g38
tp78
Rp79
s(g47
g32
tp80
g4
(g5
(g9
S'\x00\x00\x00\xe0\x895\xac\xbf'
p81
tp82
Rp83
g54
tp84
Rp85
s(g1
S'roll'
p86
tp87
g4
(g5
(g9
S'<\xf4C5PG\xb1\xbf'
p88
tp89
Rp90
g19
tp91
Rp92
s(g1
S'yaw'
p93
tp94
g4
(g5
(g9
S'=x\x18ed\xd3\xc6?'
p95
tp96
Rp97
g19
tp98
Rp99
s.(dp0
(S'attitude'
p1
S'pitch'
p2
tp3
cpint
_build_quantity
p4
(cnumpy.core.multiarray
scalar
p5
(cnumpy
dtype
p6
(S'f8'
p7
I0
I1
tp8
Rp9
(I3
S'<'
p10
NNNI-1
I-1
I0
tp11
bS'yb\n\x0f\x12\x91\xf8?'
p12
tp13
Rp14
ccopy_reg
_reconstructor
p15
(cpint.util
UnitsContainer
p16
c__builtin__
object
p17
Ntp18
Rp19
(dp20
V_d
p21
g15
(cpint.util
udict
p22
c__builtin__
dict
p23
(dp24
Vradian
p25
F1.0
stp26
Rp27
sV_hash
p28
I-8973016416414178273
sbtp29
Rp30
s(S'acceleration'
p31
S'z'
p32
tp33
g4
(g5
(g9
S'\x00\x00\x00\xa0~\x83\x81\xbf'
p34
tp35
Rp36
g15
(g16
g17
Ntp37
Rp38
(dp39
g21
g15
(g22
g23
(dp40
Vsecond
p41
F2.0
sVmeter
p42
F1.0
stp43
Rp44
sg28
I1410516519192770575
sbtp45
Rp46
s(S'gravity'
p47
S'y'
p48
tp49
g4
(g5
(g9
S'\x00\x00\x00\xa0\xdf\xfa\xef\xbf'
p50
tp51
Rp52
g15
(g16
g17
Ntp53
Rp54
(dp55
g21
g15
(g22
g23
(dp56
g41
F2.0
sg42
F1.0
stp57
Rp58
sg28
I1410516519192770575
sbtp59
Rp60
s(g31
S'x'
p61
tp62
g4
(g5
(g9
S'\x00\x00\x00`\x07,Z\xbf'
p63
tp64
Rp65
g38
tp66
Rp67
s(g47
g61
tp68
g4
(g5
(g9
S'\x00\x00\x00 \xfe\xa4u\xbf'
p69
tp70
Rp71
g54
tp72
Rp73
s(g31
g48
tp74
g4
(g5
(g9
S'\x00\x00\x00\xc0\xeb\x7f\x83?'
p75
tp76
Rp77
g38
tp78
Rp79
s(g47
g32
tp80
g4
(g5
(g9
S'\x00\x00\x00` \xe5\xa1\xbf'
p81
tp82
Rp83
g54
tp84
Rp85
s(g1
S'roll'
p86
tp87
g4
(g5
(g9
S'\x1f\x04,\xee\xfa4\xc3\xbf'
p88
tp89
Rp90
g19
tp91
Rp92
s(g1
S'yaw'
p93
tp94
g4
(g5
(g9
S'\xd8\xdd\xed!\xd3\xf7\xd0?'
p95
tp96
Rp97
g19
tp98
Rp99
s.(dp0
(S'attitude'
p1
S'pitch'
p2
tp3
cpint
_build_quantity
p4
(cnumpy.core.multiarray
scalar
p5
(cnumpy
dtype
p6
(S'f8'
p7
I0
I1
tp8
Rp9
(I3
S'<'
p10
NNNI-1
I-1
I0
tp11
bS":-\x1f2\xe3'\xf8?"
p12
tp13
Rp14
ccopy_reg
_reconstructor
p15
(cpint.util
UnitsContainer
p16
c__builtin__
object
p17
Ntp18
Rp19
(dp20
V_d
p21
g15
(cpint.util
udict
p22
c__builtin__
dict
p23
(dp24
Vradian
p25
F1.0
stp26
Rp27
sV_hash
p28
I-8973016416414178273
sbtp29
Rp30
s(S'acceleration'
p31
S'z'
p32
tp33
g4
(g5
(g9
S'\x00\x00\x00\xe0\x96\x88\x85?'
p34
tp35
Rp36
g15
(g16
g17
Ntp37
Rp38
(dp39
g21
g15
(g22
g23
(dp40
Vsecond
p41
F2.0
sVmeter
p42
F1.0
stp43
Rp44
sg28
I1410516519192770575
sbtp45
Rp46
s(S'gravity'
p47
S'y'
p48
tp49
g4
(g5
(g9
S'\x00\x00\x00\x00\xbc\xf0\xef\xbf'
p50
tp51
Rp52
g15
(g16
g17
Ntp53
Rp54
(dp55
g21
g15
(g22
g23
(dp56
g41
F2.0
sg42
F1.0
stp57
Rp58
sg28
I1410516519192770575
sbtp59
Rp60
s(g31
S'x'
p61
tp62
g4
(g5
(g9
S'\x00\x00\x00 J\x96+?'
p63
tp64
Rp65
g38
tp66
Rp67
s(g47
g61
tp68
g4
(g5
(g9
S'\x00\x00\x00`\x9b\xc6m?'
p69
tp70
Rp71
g54
tp72
Rp73
s(g31
g48
tp74
g4
(g5
(g9
S'\x00\x00\x00 \x01\x1f\x82?'
p75
tp76
Rp77
g38
tp78
Rp79
s(g47
g32
tp80
g4
(g5
(g9
S'\x00\x00\x00\xc0%.\xaf\xbf'
p81
tp82
Rp83
g54
tp84
Rp85
s(g1
S'roll'
p86
tp87
g4
(g5
(g9
S'\xb3\x0e/\xda\xbc\x85\xae?'
p88
tp89
Rp90
g19
tp91
Rp92
s(g1
S'yaw'
p93
tp94
g4
(g5
(g9
S'\xee\xf1\x0fYkU\xad?'
p95
tp96
Rp97
g19
tp98
Rp99
s.(dp0
(S'attitude'
p1
S'pitch'
p2
tp3
cpint
_build_quantity
p4
(cnumpy.core.multiarray
scalar
p5
(cnumpy
dtype
p6
(S'f8'
p7
I0
I1
tp8
Rp9
(I3
S'<'
p10
NNNI-1
I-1
I0
tp11
bS'\xa90L\xdf\xa95\xf1?'
p12
tp13
Rp14
ccopy_reg
_reconstructor
p15
(cpint.util
UnitsContainer
p16
c__builtin__
object
p17
Ntp18
Rp19
(dp20
V_d
p21
g15
(cpint.util
udict
p22
c__builtin__
dict
p23
(dp24
Vradian
p25
F1.0
stp26
Rp27
sV_hash
p28
I-8973016416414178273
sbtp29
Rp30
s(S'acceleration'
p31
S'z'
p32
tp33
g4
(g5
(g9
S'\x00\x00\x00\xc0\xf6o\x9a\xbf'
p34
tp35
Rp36
g15
(g16
g17
Ntp37
Rp38
(dp39
g21
g15
(g22
g23
(dp40
Vsecond
p41
F2.0
sVmeter
p42
F1.0
stp43
Rp44
sg28
I1410516519192770575
sbtp45
Rp46
s(S'gravity'
p47
S'y'
p48
tp49
g4
(g5
(g9
S"\x00\x00\x00\x00\xf2'\xec\xbf"
p50
tp51
Rp52
g15
(g16
g17
Ntp53
Rp54
(dp55
g21
g15
(g22
g23
(dp56
g41
F2.0
sg42
F1.0
stp57
Rp58
sg28
I1410516519192770575
sbtp59
Rp60
s(g31
S'x'
p61
tp62
g4
(g5
(g9
S'\x00\x00\x00\xa0\xc6\xc9Z?'
p63
tp64
Rp65
g38
tp66
Rp67
s(g47
g61
tp68
g4
(g5
(g9
S'\x00\x00\x00 \xc7\xd6\x85?'
p69
tp70
Rp71
g54
tp72
Rp73
s(g31
g48
tp74
g4
(g5
(g9
S'\x00\x00\x00\x80\x0e\xdcX\xbf'
p75
tp76
Rp77
g38
tp78
Rp79
s(g47
g32
tp80
g4
(g5
(g9
S'\x00\x00\x00\xa0\xc0g\xde\xbf'
p81
tp82
Rp83
g54
tp84
Rp85
s(g1
S'roll'
p86
tp87
g4
(g5
(g9
S'@_\xd6\xed\x04\xfb\x96?'
p88
tp89
Rp90
g19
tp91
Rp92
s(g1
S'yaw'
p93
tp94
g4
(g5
(g9
S'\x1e\xf6\x95\xbb\xb1l\xb6?'
p95
tp96
Rp97
g19
tp98
Rp99
s.(dp0
(S'attitude'
p1
S'pitch'
p2
tp3
cpint
_build_quantity
p4
(cnumpy.core.multiarray
scalar
p5
(cnumpy
dtype
p6
(S'f8'
p7
I0
I1
tp8
Rp9
(I3
S'<'
p10
NNNI-1
I-1
I0
tp11
bS'\xc0\x08q\xaa7\x82\xd9?'
p12
tp13
Rp14
ccopy_reg
_reconstructor
p15
(cpint.util
UnitsContainer
p16
c__builtin__
object
p17
Ntp18
Rp19
(dp20
V_d
p21
g15
(cpint.util
udict
p22
c__builtin__
dict
p23
(dp24
Vradian
p25
F1.0
stp26
Rp27
sV_hash
p28
I-8973016416414178273
sbtp29
Rp30
s(S'acceleration'
p31
S'z'
p32
tp33
g4
(g5
(g9
S'\x00\x00\x00\x00:\x1b\x88?'
p34
tp35
Rp36
g15
(g16
g17
Ntp37
Rp38
(dp39
g21
g15
(g22
g23
(dp40
Vsecond
p41
F2.0
sVmeter
p42
F1.0
stp43
Rp44
sg28
I1410516519192770575
sbtp45
Rp46
s(S'gravity'
p47
S'y'
p48
tp49
g4
(g5
(g9
S'\x00\x00\x00\xe0pD\xd9\xbf'
p50
tp51
Rp52
g15
(g16
g17
Ntp53
Rp54
(dp55
g21
g15
(g22
g23
(dp56
g41
F2.0
sg42
F1.0
stp57
Rp58
sg28
I1410516519192770575
sbtp59
Rp60
s(g31
S'x'
p61
tp62
g4
(g5
(g9
S'\x00\x00\x00\x80\xb1]\x8c\xbf'
p63
tp64
Rp65
g38
tp66
Rp67
s(g47
g61
tp68
g4
(g5
(g9
S'\x00\x00\x00\xc0\x91\xd4\xa1?'
p69
tp70
Rp71
g54
tp72
Rp73
s(g31
g48
tp74
g4
(g5
(g9
S'\x00\x00\x00\xc0\xd6\xafQ?'
p75
tp76
Rp77
g38
tp78
Rp79
s(g47
g32
tp80
g4
(g5
(g9
S'\x00\x00\x00`\x1fa\xed\xbf'
p81
tp82
Rp83
g54
tp84
Rp85
s(g1
S'roll'
p86
tp87
g4
(g5
(g9
S'9\xda\xba\xaa\xe2\xe5\xa3?'
p88
tp89
Rp90
g19
tp91
Rp92
s(g1
S'yaw'
p93
tp94
g4
(g5
(g9
S'\xd1h\xd4\xdat9\xb7?'
p95
tp96
Rp97
g19
tp98
Rp99
s.(dp0
(S'attitude'
p1
S'pitch'
p2
tp3
cpint
_build_quantity
p4
(cnumpy.core.multiarray
scalar
p5
(cnumpy
dtype
p6
(S'f8'
p7
I0
I1
tp8
Rp9
(I3
S'<'
p10
NNNI-1
I-1
I0
tp11
bS'\x9b\xa4\xee\xc8\xce\xec\xb2?'
p12
tp13
Rp14
ccopy_reg
_reconstructor
p15
(cpint.util
UnitsContainer
p16
c__builtin__
object
p17
Ntp18
Rp19
(dp20
V_d
p21
g15
(cpint.util
udict
p22
c__builtin__
dict
p23
(dp24
Vradian
p25
F1.0
stp26
Rp27
sV_hash
p28
I-8973016416414178273
sbtp29
Rp30
s(S'acceleration'
p31
S'z'
p32
tp33
g4
(g5
(g9
S'\x00\x00\x00 \xf6\xf3\xb0\xbf'
p34
tp35
Rp36
g15
(g16
g17
Ntp37
Rp38
(dp39
g21
g15
(g22
g23
(dp40
Vsecond
p41
F2.0
sVmeter
p42
F1.0
stp43
Rp44
sg28
I1410516519192770575
sbtp45
Rp46
s(S'gravity'
p47
S'y'
p48
tp49
g4
(g5
(g9
S'\x00\x00\x00`e\xe8\xb2\xbf'
p50
tp51
Rp52
g15
(g16
g17
Ntp53
Rp54
(dp55
g21
g15
(g22
g23
(dp56
g41
F2.0
sg42
F1.0
stp57
Rp58
sg28
I1410516519192770575
sbtp59
Rp60
s(g31
S'x'
p61
tp62
g4
(g5
(g9
S'\x00\x00\x00\xa0e7\xaa?'
p63
tp64
Rp65
g38
tp66
Rp67
s(g47
g61
tp68
g4
(g5
(g9
S'\x00\x00\x00\xa0e9\xab\xbf'
p69
tp70
Rp71
g54
tp72
Rp73
s(g31
g48
tp74
g4
(g5
(g9
S'\x00\x00\x00\x00\xadlf?'
p75
tp76
Rp77
g38
tp78
Rp79
s(g47
g32
tp80
g4
(g5
(g9
S'\x00\x00\x00@\x01\xde\xef\xbf'
p81
tp82
Rp83
g54
tp84
Rp85
s(g1
S'roll'
p86
tp87
g4
(g5
(g9
S'\xc9\x05\x06\xb6\xccO\xab\xbf'
p88
tp89
Rp90
g19
tp91
Rp92
s(g1
S'yaw'
p93
tp94
g4
(g5
(g9
S'BW\x96u\xcaD\xcf?'
p95
tp96
Rp97
g19
tp98
Rp99
s.(dp0
(S'attitude'
p1
S'pitch'
p2
tp3
cpint
_build_quantity
p4
(cnumpy.core.multiarray
scalar
p5
(cnumpy
dtype
p6
(S'f8'
p7
I0
I1
tp8
Rp9
(I3
S'<'
p10
NNNI-1
I-1
I0
tp11
bS'`\x844\xee&\xa5\xbf?'
p12
tp13
Rp14
ccopy_reg
_reconstructor
p15
(cpint.util
UnitsContainer
p16
c__builtin__
object
p17
Ntp18
Rp19
(dp20
V_d
p21
g15
(cpint.util
udict
p22
c__builtin__
dict
p23
(dp24
Vradian
p25
F1.0
stp26
Rp27
sV_hash
p28
I-8973016416414178273
sbtp29
Rp30
s(S'acceleration'
p31
S'z'
p32
tp33
g4
(g5
(g9
S'\x00\x00\x00\x00\x9d\xc4v?'
p34
tp35
Rp36
g15
(g16
g17
Ntp37
Rp38
(dp39
g21
g15
(g22
g23
(dp40
Vsecond
p41
F2.0
sVmeter
p42
F1.0
stp43
Rp44
sg28
I1410516519192770575
sbtp45
Rp46
s(S'gravity'
p47
S'y'
p48
tp49
g4
(g5
(g9
S'\x00\x00\x00`\x89\x90\xbf\xbf'
p50
tp51
Rp52
g15
(g16
g17
Ntp53
Rp54
(dp55
g21
g15
(g22
g23
(dp56
g41
F2.0
sg42
F1.0
stp57
Rp58
sg28
I1410516519192770575
sbtp59
Rp60
s(g31
S'x'
p61
tp62
g4
(g5
(g9
S'\x00\x00\x00\x80pay?'
p63
tp64
Rp65
g38
tp66
Rp67
s(g47
g61
tp68
g4
(g5
(g9
S'\x00\x00\x00\xe0\xe2e\xe6\xbf'
p69
tp70
Rp71
g54
tp72
Rp73
s(g31
g48
tp74
g4
(g5
(g9
S'\x00\x00\x00 \x95\xe8\x7f?'
p75
tp76
Rp77
g38
tp78
Rp79
s(g47
g32
tp80
g4
(g5
(g9
S'\x00\x00\x00@\xe9\x82\xe6\xbf'
p81
tp82
Rp83
g54
tp84
Rp85
s(g1
S'roll'
p86
tp87
g4
(g5
(g9
S'}K\xb2\xdfL\r\xe9\xbf'
p88
tp89
Rp90
g19
tp91
Rp92
s(g1
S'yaw'
p93
tp94
g4
(g5
(g9
S'<Cd^\x97O\xce?'
p95
tp96
Rp97
g19
tp98
Rp99
s.(dp0
(S'attitude'
p1
S'pitch'
p2
tp3
cpint
_build_quantity
p4
(cnumpy.core.multiarray
scalar
p5
(cnumpy
dtype
p6
(S'f8'
p7
I0
I1
tp8
Rp9
(I3
S'<'
p10
NNNI-1
I-1
I0
tp11
bS'i&\x04w\xf2\x92\xb0?'
p12
tp13
Rp14
ccopy_reg
_reconstructor
p15
(cpint.util
UnitsContainer
p16
c__builtin__
object
p17
Ntp18
Rp19
(dp20
V_d
p21
g15
(cpint.util
udict
p22
c__builtin__
dict
p23
(dp24
Vradian
p25
F1.0
stp26
Rp27
sV_hash
p28
I-8973016416414178273
sbtp29
Rp30
s(S'acceleration'
p31
S'z'
p32
tp33
g4
(g5
(g9
S'\x00\x00\x00\x80Y\x1e\xa3?'
p34
tp35
Rp36
g15
(g16
g17
Ntp37
Rp38
(dp39
g21
g15
(g22
g23
(dp40
Vsecond
p41
F2.0
sVmeter
p42
F1.0
stp43
Rp44
sg28
I1410516519192770575
sbtp45
Rp46
s(S'gravity'
p47
S'y'
p48
tp49
g4
(g5
(g9
S'\x00\x00\x00 \xf5\x8e\xb0\xbf'
p50
tp51
Rp52
g15
(g16
g17
Ntp53
Rp54
(dp55
g21
g15
(g22
g23
(dp56
g41
F2.0
sg42
F1.0
stp57
Rp58
sg28
I1410516519192770575
sbtp59
Rp60
s(g31
S'x'
p61
tp62
g4
(g5
(g9
S'\x00\x00\x00\xc0\x83Qo?'
p63
tp64
Rp65
g38
tp66
Rp67
s(g47
g61
tp68
g4
(g5
(g9
S'\x00\x00\x00\xa05n\xed\xbf'
p69
tp70
Rp71
g54
tp72
Rp73
s(g31
g48
tp74
g4
(g5
(g9
S'\x00\x00\x00\x80!\xc8\x85\xbf'
p75
tp76
Rp77
g38
tp78
Rp79
s(g47
g32
tp80
g4
(g5
(g9
S'\x00\x00\x00\xa0\xac\xc8\xd8\xbf'
p81
tp82
Rp83
g54
tp84
Rp85
s(g1
S'roll'
p86
tp87
g4
(g5
(g9
S'K\xf1\xf8\xf1\x13\xce\xf2\xbf'
p88
tp89
Rp90
g19
tp91
Rp92
s(g1
S'yaw'
p93
tp94
g4
(g5
(g9
S'1\x987)\xcd`\xc7?'
p95
tp96
Rp97
g19
tp98
Rp99
s.(dp0
(S'attitude'
p1
S'pitch'
p2
tp3
cpint
_build_quantity
p4
(cnumpy.core.multiarray
scalar
p5
(cnumpy
dtype
p6
(S'f8'
p7
I0
I1
tp8
Rp9
(I3
S'<'
p10
NNNI-1
I-1
I0
tp11
bS'\xf8\x84&x1\xa1\xa9?'
p12
tp13
Rp14
ccopy_reg
_reconstructor
p15
(cpint.util
UnitsContainer
p16
c__builtin__
object
p17
Ntp18
Rp19
(dp20
V_d
p21
g15
(cpint.util
udict
p22
c__builtin__
dict
p23
(dp24
Vradian
p25
F1.0
stp26
Rp27
sV_hash
p28
I-8973016416414178273
sbtp29
Rp30
s(S'acceleration'
p31
S'z'
p32
tp33
g4
(g5
(g9
S'\x00\x00\x00\x00\xf0\x9c\xa8?'
p34
tp35
Rp36
g15
(g16
g17
Ntp37
Rp38
(dp39
g21
g15
(g22
g23
(dp40
Vsecond
p41
F2.0
sVmeter
p42
F1.0
stp43
Rp44
sg28
I1410516519192770575
sbtp45
Rp46
s(S'gravity'
p47
S'y'
p48
tp49
g4
(g5
(g9
S'\x00\x00\x00 t\x9e\xa9\xbf'
p50
tp51
Rp52
g15
(g16
g17
Ntp53
Rp54
(dp55
g21
g15
(g22
g23
(dp56
g41
F2.0
sg42
F1.0
stp57
Rp58
sg28
I1410516519192770575
sbtp59
Rp60
s(g31
S'x'
p61
tp62
g4
(g5
(g9
S'\x00\x00\x00\x00\n"\x80\xbf'
p63
tp64
Rp65
g38
tp66
Rp67
s(g47
g61
tp68
g4
(g5
(g9
S'\x00\x00\x00\xe0\xd7\xc5\xef\xbf'
p69
tp70
Rp71
g54
tp72
Rp73
s(g31
g48
tp74
g4
(g5
(g9
S'\x00\x00\x00\xc0/\x1e\x84\xbf'
p75
tp76
Rp77
g38
tp78
Rp79
s(g47
g32
tp80
g4
(g5
(g9
S'\x00\x00\x00\x00x\x9f\xbb\xbf'
p81
tp82
Rp83
g54
tp84
Rp85
s(g1
S'roll'
p86
tp87
g4
(g5
(g9
S'\xc1!\xb7J\x98f\xf7\xbf'
p88
tp89
Rp90
g19
tp91
Rp92
s(g1
S'yaw'
p93
tp94
g4
(g5
(g9
S'\x01QB\xa8\xce\xb1\xd0?'
p95
tp96
Rp97
g19
tp98
Rp99
s.(dp0
(S'attitude'
p1
S'pitch'
p2
tp3
cpint
_build_quantity
p4
(cnumpy.core.multiarray
scalar
p5
(cnumpy
dtype
p6
(S'f8'
p7
I0
I1
tp8
Rp9
(I3
S'<'
p10
NNNI-1
I-1
I0
tp11
bS'\xcd*\xf9\xe1{A\xa8?'
p12
tp13
Rp14
ccopy_reg
_reconstructor
p15
(cpint.util
UnitsContainer
p16
c__builtin__
object
p17
Ntp18
Rp19
(dp20
V_d
p21
g15
(cpint.util
udict
p22
c__builtin__
dict
p23
(dp24
Vradian
p25
F1.0
stp26
Rp27
sV_hash
p28
I-8973016416414178273
sbtp29
Rp30
s(S'acceleration'
p31
S'z'
p32
tp33
g4
(g5
(g9
S'\x00\x00\x00\xc0\xf3C\xa1?'
p34
tp35
Rp36
g15
(g16
g17
Ntp37
Rp38
(dp39
g21
g15
(g22
g23
(dp40
Vsecond
p41
F2.0
sVmeter
p42
F1.0
stp43
Rp44
sg28
I1410516519192770575
sbtp45
Rp46
s(S'gravity'
p47
S'y'
p48
tp49
g4
(g5
(g9
S'\x00\x00\x00 t\xb6\xa7\xbf'
p50
tp51
Rp52
g15
(g16
g17
Ntp53
Rp54
(dp55
g21
g15
(g22
g23
(dp56
g41
F2.0
sg42
F1.0
stp57
Rp58
sg28
I1410516519192770575
sbtp59
Rp60
s(g31
S'x'
p61
tp62
g4
(g5
(g9
S'\x00\x00\x00\x80W\x80\x93\xbf'
p63
tp64
Rp65
g38
tp66
Rp67
s(g47
g61
tp68
g4
(g5
(g9
S'\x00\x00\x00@\x8eS\xef\xbf'
p69
tp70
Rp71
g54
tp72
Rp73
s(g31
g48
tp74
g4
(g5
(g9
S'\x00\x00\x00`\xa5T\x81?'
p75
tp76
Rp77
g38
tp78
Rp79
s(g47
g32
tp80
g4
(g5
(g9
S'\x00\x00\x00 oq\xc9\xbf'
p81
tp82
Rp83
g54
tp84
Rp85
s(g1
S'roll'
p86
tp87
g4
(g5
(g9
S'j\xd4Z-(\xce\xf5\xbf'
p88
tp89
Rp90
g19
tp91
Rp92
s(g1
S'yaw'
p93
tp94
g4
(g5
(g9
S'\xb1\x1a,\xe7\x80\x9b\xd0?'
p95
tp96
Rp97
g19
tp98
Rp99
s.(dp0
(S'attitude'
p1
S'pitch'
p2
tp3
cpint
_build_quantity
p4
(cnumpy.core.multiarray
scalar
p5
(cnumpy
dtype
p6
(S'f8'
p7
I0
I1
tp8
Rp9
(I3
S'<'
p10
NNNI-1
I-1
I0
tp11
bS'\xea\xb3\xd0i\x88\x1f\xb5?'
p12
tp13
Rp14
ccopy_reg
_reconstructor
p15
(cpint.util
UnitsContainer
p16
c__builtin__
object
p17
Ntp18
Rp19
(dp20
V_d
p21
g15
(cpint.util
udict
p22
c__builtin__
dict
p23
(dp24
Vradian
p25
F1.0
stp26
Rp27
sV_hash
p28
I-8973016416414178273
sbtp29
Rp30
s(S'acceleration'
p31
S'z'
p32
tp33
g4
(g5
(g9
S'\x00\x00\x00`\x7fT\x93\xbf'
p34
tp35
Rp36
g15
(g16
g17
Ntp37
Rp38
(dp39
g21
g15
(g22
g23
(dp40
Vsecond
p41
F2.0
sVmeter
p42
F1.0
stp43
Rp44
sg28
I1410516519192770575
sbtp45
Rp46
s(S'gravity'
p47
S'y'
p48
tp49
g4
(g5
(g9
S'\x00\x00\x00 f\x19\xb5\xbf'
p50
tp51
Rp52
g15
(g16
g17
Ntp53
Rp54
(dp55
g21
g15
(g22
g23
(dp56
g41
F2.0
sg42
F1.0
stp57
Rp58
sg28
I1410516519192770575
sbtp59
Rp60
s(g31
S'x'
p61
tp62
g4
(g5
(g9
S'\x00\x00\x00`\xe1\x19\xa9\xbf'
p63
tp64
Rp65
g38
tp66
Rp67
s(g47
g61
tp68
g4
(g5
(g9
S'\x00\x00\x00@\x0fO\xb9\xbf'
p69
tp70
Rp71
g54
tp72
Rp73
s(g31
g48
tp74
g4
(g5
(g9
S'\x00\x00\x00\x00\x9e\xa9u\xbf'
p75
tp76
Rp77
g38
tp78
Rp79
s(g47
g32
tp80
g4
(g5
(g9
S'\x00\x00\x00\x00\xdc\xbb\xef\xbf'
p81
tp82
Rp83
g54
tp84
Rp85
s(g1
S'roll'
p86
tp87
g4
(g5
(g9
S'\xfcl\xffk\xe3o\xb9\xbf'
p88
tp89
Rp90
g19
tp91
Rp92
s(g1
S'yaw'
p93
tp94
g4
(g5
(g9
S'\xe4\x988\x11\xda\x9a\xd4?'
p95
tp96
Rp97
g19
tp98
Rp99
s.(dp0
(S'attitude'
p1
S'pitch'
p2
tp3
cpint
_build_quantity
p4
(cnumpy.core.multiarray
scalar
p5
(cnumpy
dtype
p6
(S'f8'
p7
I0
I1
tp8
Rp9
(I3
S'<'
p10
NNNI-1
I-1
I0
tp11
bS'<\n\xd5Cw\x1b\xc4?'
p12
tp13
Rp14
ccopy_reg
_reconstructor
p15
(cpint.util
UnitsContainer
p16
c__builtin__
object
p17
Ntp18
Rp19
(dp20
V_d
p21
g15
(cpint.util
udict
p22
c__builtin__
dict
p23
(dp24
Vradian
p25
F1.0
stp26
Rp27
sV_hash
p28
I-8973016416414178273
sbtp29
Rp30
s(S'acceleration'
p31
S'z'
p32
tp33
g4
(g5
(g9
S'\x00\x00\x00\xa0-A\xa4\xbf'
p34
tp35
Rp36
g15
(g16
g17
Ntp37
Rp38
(dp39
g21
g15
(g22
g23
(dp40
Vsecond
p41
F2.0
sVmeter
p42
F1.0
stp43
Rp44
sg28
I1410516519192770575
sbtp45
Rp46
s(S'gravity'
p47
S'y'
p48
tp49
g4
(g5
(g9
S'\x00\x00\x00`R\x06\xc4\xbf'
p50
tp51
Rp52
g15
(g16
g17
Ntp53
Rp54
(dp55
g21
g15
(g22
g23
(dp56
g41
F2.0
sg42
F1.0
stp57
Rp58
sg28
I1410516519192770575
sbtp59
Rp60
s(g31
S'x'
p61
tp62
g4
(g5
(g9
S'\x00\x00\x00\x00T!\x90\xbf'
p63
tp64
Rp65
g38
tp66
Rp67
s(g47
g61
tp68
g4
(g5
(g9
S'\x00\x00\x00\xa0*\xc0\xe5?'
p69
tp70
Rp71
g54
tp72
Rp73
s(g31
g48
tp74
g4
(g5
(g9
S'\x00\x00\x00 %\r\x84?'
p75
tp76
Rp77
g38
tp78
Rp79
s(g47
g32
tp80
g4
(g5
(g9
S'\x00\x00\x00 m\xee\xe6\xbf'
p81
tp82
Rp83
g54
tp84
Rp85
s(g1
S'roll'
p86
tp87
g4
(g5
(g9
S'\xbe\x8c\x03\xe4\x8fI\xe8?'
p88
tp89
Rp90
g19
tp91
Rp92
s(g1
S'yaw'
p93
tp94
g4
(g5
(g9
S'\x84\x08\xfd\x9e\xf6\x06\xc1?'
p95
tp96
Rp97
g19
tp98
Rp99
s.(dp0
(S'attitude'
p1
S'pitch'
p2
tp3
cpint
_build_quantity
p4
(cnumpy.core.multiarray
scalar
p5
(cnumpy
dtype
p6
(S'f8'
p7
I0
I1
tp8
Rp9
(I3
S'<'
p10
NNNI-1
I-1
I0
tp11
bS']\xf0\xf4\xcc~b\xb9?'
p12
tp13
Rp14
ccopy_reg
_reconstructor
p15
(cpint.util
UnitsContainer
p16
c__builtin__
object
p17
Ntp18
Rp19
(dp20
V_d
p21
g15
(cpint.util
udict
p22
c__builtin__
dict
p23
(dp24
Vradian
p25
F1.0
stp26
Rp27
sV_hash
p28
I-8973016416414178273
sbtp29
Rp30
s(S'acceleration'
p31
S'z'
p32
tp33
g4
(g5
(g9
S'\x00\x00\x00\x80\xfc\x0c\x96\xbf'
p34
tp35
Rp36
g15
(g16
g17
Ntp37
Rp38
(dp39
g21
g15
(g22
g23
(dp40
Vsecond
p41
F2.0
sVmeter
p42
F1.0
stp43
Rp44
sg28
I1410516519192770575
sbtp45
Rp46
s(S'gravity'
p47
S'y'
p48
tp49
g4
(g5
(g9
S'\x00\x00\x00\xe0\xd9W\xb9\xbf'
p50
tp51
Rp52
g15
(g16
g17
Ntp53
Rp54
(dp55
g21
g15
(g22
g23
(dp56
g41
F2.0
sg42
F1.0
stp57
Rp58
sg28
I1410516519192770575
sbtp59
Rp60
s(g31
S'x'
p61
tp62
g4
(g5
(g9
S'\x00\x00\x00`\r\xe7\x90?'
p63
tp64
Rp65
g38
tp66
Rp67
s(g47
g61
tp68
g4
(g5
(g9
S'\x00\x00\x00\xa0gL\xee?'
p69
tp70
Rp71
g54
tp72
Rp73
s(g31
g48
tp74
g4
(g5
(g9
S'\x00\x00\x00\x001y\x88\xbf'
p75
tp76
Rp77
g38
tp78
Rp79
s(g47
g32
tp80
g4
(g5
(g9
S'\x00\x00\x00@\xb0\x97\xd3\xbf'
p81
tp82
Rp83
g54
tp84
Rp85
s(g1
S'roll'
p86
tp87
g4
(g5
(g9
S'+"\x00\x16\x18!\xf4?'
p88
tp89
Rp90
g19
tp91
Rp92
s(g1
S'yaw'
p93
tp94
g4
(g5
(g9
S'\\z\x99c\xe2\xd9\xc0?'
p95
tp96
Rp97
g19
tp98
Rp99
s.(dp0
(S'attitude'
p1
S'pitch'
p2
tp3
cpint
_build_quantity
p4
(cnumpy.core.multiarray
scalar
p5
(cnumpy
dtype
p6
(S'f8'
p7
I0
I1
tp8
Rp9
(I3
S'<'
p10
NNNI-1
I-1
I0
tp11
bS'\x02\xbb\xf8$p\xaa\xbc?'
p12
tp13
Rp14
ccopy_reg
_reconstructor
p15
(cpint.util
UnitsContainer
p16
c__builtin__
object
p17
Ntp18
Rp19
(dp20
V_d
p21
g15
(cpint.util
udict
p22
c__builtin__
dict
p23
(dp24
Vradian
p25
F1.0
stp26
Rp27
sV_hash
p28
I-8973016416414178273
sbtp29
Rp30
s(S'acceleration'
p31
S'z'
p32
tp33
g4
(g5
(g9
S'\x00\x00\x00 \x9f)Q\xbf'
p34
tp35
Rp36
g15
(g16
g17
Ntp37
Rp38
(dp39
g21
g15
(g22
g23
(dp40
Vsecond
p41
F2.0
sVmeter
p42
F1.0
stp43
Rp44
sg28
I1410516519192770575
sbtp45
Rp46
s(S'gravity'
p47
S'y'
p48
tp49
g4
(g5
(g9
S'\x00\x00\x00\xc0\x1c\x9b\xbc\xbf'
p50
tp51
Rp52
g15
(g16
g17
Ntp53
Rp54
(dp55
g21
g15
(g22
g23
(dp56
g41
F2.0
sg42
F1.0
stp57
Rp58
sg28
I1410516519192770575
sbtp59
Rp60
s(g31
S'x'
p61
tp62
g4
(g5
(g9
S'\x00\x00\x00@V\xb4\x89?'
p63
tp64
Rp65
g38
tp66
Rp67
s(g47
g61
tp68
g4
(g5
(g9
S'\x00\x00\x00\xa0ng\xee?'
p69
tp70
Rp71
g54
tp72
Rp73
s(g31
g48
tp74
g4
(g5
(g9
S'\x00\x00\x00\xe0,\x07Y?'
p75
tp76
Rp77
g38
tp78
Rp79
s(g47
g32
tp80
g4
(g5
(g9
S'\x00\x00\x00`V\xa2\xd2\xbf'
p81
tp82
Rp83
g54
tp84
Rp85
s(g1
S'roll'
p86
tp87
g4
(g5
(g9
S'\x16\x10\x9e\xd0\x02`\xf4?'
p88
tp89
Rp90
g19
tp91
Rp92
s(g1
S'yaw'
p93
tp94
g4
(g5
(g9
S'\xb7\xf0H\xe4\xa7L\xc1?'
p95
tp96
Rp97
g19
tp98
Rp99
s.(dp0
(S'attitude'
p1
S'pitch'
p2
tp3
cpint
_build_quantity
p4
(cnumpy.core.multiarray
scalar
p5
(cnumpy
dtype
p6
(S'f8'
p7
I0
I1
tp8
Rp9
(I3
S'<'
p10
NNNI-1
I-1
I0
tp11
bS'\xc00%2g\x82\xe6?'
p12
tp13
Rp14
ccopy_reg
_reconstructor
p15
(cpint.util
UnitsContainer
p16
c__builtin__
object
p17
Ntp18
Rp19
(dp20
V_d
p21
g15
(cpint.util
udict
p22
c__builtin__
dict
p23
(dp24
Vradian
p25
F1.0
stp26
Rp27
sV_hash
p28
I-8973016416414178273
sbtp29
Rp30
s(S'acceleration'
p31
S'z'
p32
tp33
g4
(g5
(g9
S'\x00\x00\x00`e\x1c\xbf\xbf'
p34
tp35
Rp36
g15
(g16
g17
Ntp37
Rp38
(dp39
g21
g15
(g22
g23
(dp40
Vsecond
p41
F2.0
sVmeter
p42
F1.0
stp43
Rp44
sg28
I1410516519192770575
sbtp45
Rp46
s(S'gravity'
p47
S'y'
p48
tp49
g4
(g5
(g9
S'\x00\x00\x00\x80\xd1\xb2\xe4\xbf'
p50
tp51
Rp52
g15
(g16
g17
Ntp53
Rp54
(dp55
g21
g15
(g22
g23
(dp56
g41
F2.0
sg42
F1.0
stp57
Rp58
sg28
I1410516519192770575
sbtp59
Rp60
s(g31
S'x'
p61
tp62
g4
(g5
(g9
S'\x00\x00\x00\x00\x9b\x89\xbb?'
p63
tp64
Rp65
g38
tp66
Rp67
s(g47
g61
tp68
g4
(g5
(g9
S'\x00\x00\x00@\x19p\xdf?'
p69
tp70
Rp71
g54
tp72
Rp73
s(g31
g48
tp74
g4
(g5
(g9
S'\x00\x00\x00 \x18\x97\xa4?'
p75
tp76
Rp77
g38
tp78
Rp79
s(g47
g32
tp80
g4
(g5
(g9
S'\x00\x00\x00`\xf3\xaa\xe2\xbf'
p81
tp82
Rp83
g54
tp84
Rp85
s(g1
S'roll'
p86
tp87
g4
(g5
(g9
S'\xd9M\x14\xfe0e\xe6?'
p88
tp89
Rp90
g19
tp91
Rp92
s(g1
S'yaw'
p93
tp94
g4
(g5
(g9
S'\xb8V\xf1y\x90\xfc\xab\xbf'
p95
tp96
Rp97
g19
tp98
Rp99
s.(dp0
(S'attitude'
p1
S'pitch'
p2
tp3
cpint
_build_quantity
p4
(cnumpy.core.multiarray
scalar
p5
(cnumpy
dtype
p6
(S'f8'
p7
I0
I1
tp8
Rp9
(I3
S'<'
p10
NNNI-1
I-1
I0
tp11
bS'\x071f\xca,\x94\xe1?'
p12
tp13
Rp14
ccopy_reg
_reconstructor
p15
(cpint.util
UnitsContainer
p16
c__builtin__
object
p17
Ntp18
Rp19
(dp20
V_d
p21
g15
(cpint.util
udict
p22
c__builtin__
dict
p23
(dp24
Vradian
p25
F1.0
stp26
Rp27
sV_hash
p28
I-8973016416414178273
sbtp29
Rp30
s(S'acceleration'
p31
S'z'
p32
tp33
g4
(g5
(g9
S'\x00\x00\x00@z\xed\xbb\xbf'
p34
tp35
Rp36
g15
(g16
g17
Ntp37
Rp38
(dp39
g21
g15
(g22
g23
(dp40
Vsecond
p41
F2.0
sVmeter
p42
F1.0
stp43
Rp44
sg28
I1410516519192770575
sbtp45
Rp46
s(S'gravity'
p47
S'y'
p48
tp49
g4
(g5
(g9
S'\x00\x00\x00`:\xb5\xe0\xbf'
p50
tp51
Rp52
g15
(g16
g17
Ntp53
Rp54
(dp55
g21
g15
(g22
g23
(dp56
g41
F2.0
sg42
F1.0
stp57
Rp58
sg28
I1410516519192770575
sbtp59
Rp60
s(g31
S'x'
p61
tp62
g4
(g5
(g9
S'\x00\x00\x00\xe0\xbd\xe7\x91\xbf'
p63
tp64
Rp65
g38
tp66
Rp67
s(g47
g61
tp68
g4
(g5
(g9
S'\x00\x00\x00\x80\x10\xb5\xb1\xbf'
p69
tp70
Rp71
g54
tp72
Rp73
s(g31
g48
tp74
g4
(g5
(g9
S'\x00\x00\x00\xa0*]|?'
p75
tp76
Rp77
g38
tp78
Rp79
s(g47
g32
tp80
g4
(g5
(g9
S'\x00\x00\x00@\xaf3\xeb?'
p81
tp82
Rp83
g54
tp84
Rp85
s(g1
S'roll'
p86
tp87
g4
(g5
(g9
S'4=B\xf1\xb3{\x08\xc0'
p88
tp89
Rp90
g19
tp91
Rp92
s(g1
S'yaw'
p93
tp94
g4
(g5
(g9
S'\xbd\x1b\x18\xb5\xad=\x07\xc0'
p95
tp96
Rp97
g19
tp98
Rp99
s.(dp0
(S'attitude'
p1
S'pitch'
p2
tp3
cpint
_build_quantity
p4
(cnumpy.core.multiarray
scalar
p5
(cnumpy
dtype
p6
(S'f8'
p7
I0
I1
tp8
Rp9
(I3
S'<'
p10
NNNI-1
I-1
I0
tp11
bS'\xedWk\xfa\x83X\xc7\xbf'
p12
tp13
Rp14
ccopy_reg
_reconstructor
p15
(cpint.util
UnitsContainer
p16
c__builtin__
object
p17
Ntp18
Rp19
(dp20
V_d
p21
g15
(cpint.util
udict
p22
c__builtin__
dict
p23
(dp24
Vradian
p25
F1.0
stp26
Rp27
sV_hash
p28
I-8973016416414178273
sbtp29
Rp30
s(S'acceleration'
p31
S'z'
p32
tp33
g4
(g5
(g9
S'\x00\x00\x00\x00\xfc\x1d\x94\xbf'
p34
tp35
Rp36
g15
(g16
g17
Ntp37
Rp38
(dp39
g21
g15
(g22
g23
(dp40
Vsecond
p41
F2.0
sVmeter
p42
F1.0
stp43
Rp44
sg28
I1410516519192770575
sbtp45
Rp46
s(S'gravity'
p47
S'y'
p48
tp49
g4
(g5
(g9
S'\x00\x00\x00`o7\xc7?'
p50
tp51
Rp52
g15
(g16
g17
Ntp53
Rp54
(dp55
g21
g15
(g22
g23
(dp56
g41
F2.0
sg42
F1.0
stp57
Rp58
sg28
I1410516519192770575
sbtp59
Rp60
s(g31
S'x'
p61
tp62
g4
(g5
(g9
S'\x00\x00\x00@1\x9c\x95?'
p63
tp64
Rp65
g38
tp66
Rp67
s(g47
g61
tp68
g4
(g5
(g9
S'\x00\x00\x00@\x0c\x12\xb9\xbf'
p69
tp70
Rp71
g54
tp72
Rp73
s(g31
g48
tp74
g4
(g5
(g9
S'\x00\x00\x00\xe0\x84\x80\x91?'
p75
tp76
Rp77
g38
tp78
Rp79
s(g47
g32
tp80
g4
(g5
(g9
S'\x00\x00\x00\xe0\x0fP\xef?'
p81
tp82
Rp83
g54
tp84
Rp85
s(g1
S'roll'
p86
tp87
g4
(g5
(g9
S'Gk\xef+\xb2U\x08\xc0'
p88
tp89
Rp90
g19
tp91
Rp92
s(g1
S'yaw'
p93
tp94
g4
(g5
(g9
S'Y\xdd\xde\xe2\x88\xc1\x07\xc0'
p95
tp96
Rp97
g19
tp98
Rp99
s.(dp0
(S'attitude'
p1
S'pitch'
p2
tp3
cpint
_build_quantity
p4
(cnumpy.core.multiarray
scalar
p5
(cnumpy
dtype
p6
(S'f8'
p7
I0
I1
tp8
Rp9
(I3
S'<'
p10
NNNI-1
I-1
I0
tp11
bS'\xc9#\x0f\xd0=^\xc4\xbf'
p12
tp13
Rp14
ccopy_reg
_reconstructor
p15
(cpint.util
UnitsContainer
p16
c__builtin__
object
p17
Ntp18
Rp19
(dp20
V_d
p21
g15
(cpint.util
udict
p22
c__builtin__
dict
p23
(dp24
Vradian
p25
F1.0
stp26
Rp27
sV_hash
p28
I-8973016416414178273
sbtp29
Rp30
s(S'acceleration'
p31
S'z'
p32
tp33
g4
(g5
(g9
S'\x00\x00\x00\xe0\x1a9e\xbf'
p34
tp35
Rp36
g15
(g16
g17
Ntp37
Rp38
(dp39
g21
g15
(g22
g23
(dp40
Vsecond
p41
F2.0
sVmeter
p42
F1.0
stp43
Rp44
sg28
I1410516519192770575
sbtp45
Rp46
s(S'gravity'
p47
S'y'
p48
tp49
g4
(g5
(g9
S'\x00\x00\x00\xa0CH\xc4?'
p50
tp51
Rp52
g15
(g16
g17
Ntp53
Rp54
(dp55
g21
g15
(g22
g23
(dp56
g41
F2.0
sg42
F1.0
stp57
Rp58
sg28
I1410516519192770575
sbtp59
Rp60
s(g31
S'x'
p61
tp62
g4
(g5
(g9
S'\x00\x00\x00 \xca\x9c\x85\xbf'
p63
tp64
Rp65
g38
tp66
Rp67
s(g47
g61
tp68
g4
(g5
(g9
S'\x00\x00\x00\xc0f\x8c\xb1\xbf'
p69
tp70
Rp71
g54
tp72
Rp73
s(g31
g48
tp74
g4
(g5
(g9
S'\x00\x00\x00\x00L\x870\xbf'
p75
tp76
Rp77
g38
tp78
Rp79
s(g47
g32
tp80
g4
(g5
(g9
S'\x00\x00\x00 \xf9\x84\xef?'
p81
tp82
Rp83
g54
tp84
Rp85
s(g1
S'roll'
p86
tp87
g4
(g5
(g9
S'H$V\xe4\xae\x93\x08\xc0'
p88
tp89
Rp90
g19
tp91
Rp92
s(g1
S'yaw'
p93
tp94
g4
(g5
(g9
S'\xe8\xdc\x18\xad\xe5\xe0\x06\xc0'
p95
tp96
Rp97
g19
tp98
Rp99
s.(dp0
(S'attitude'
p1
S'pitch'
p2
tp3
cpint
_build_quantity
p4
(cnumpy.core.multiarray
scalar
p5
(cnumpy
dtype
p6
(S'f8'
p7
I0
I1
tp8
Rp9
(I3
S'<'
p10
NNNI-1
I-1
I0
tp11
bS'\r6$\xdb\x13X\xbb\xbf'
p12
tp13
Rp14
ccopy_reg
_reconstructor
p15
(cpint.util
UnitsContainer
p16
c__builtin__
object
p17
Ntp18
Rp19
(dp20
V_d
p21
g15
(cpint.util
udict
p22
c__builtin__
dict
p23
(dp24
Vradian
p25
F1.0
stp26
Rp27
sV_hash
p28
I-8973016416414178273
sbtp29
Rp30
s(S'acceleration'
p31
S'z'
p32
tp33
g4
(g5
(g9
S'\x00\x00\x00\xc0\xc0~\xd5\xbf'
p34
tp35
Rp36
g15
(g16
g17
Ntp37
Rp38
(dp39
g21
g15
(g22
g23
(dp40
Vsecond
p41
F2.0
sVmeter
p42
F1.0
stp43
Rp44
sg28
I1410516519192770575
sbtp45
Rp46
s(S'gravity'
p47
S'y'
p48
tp49
g4
(g5
(g9
S'\x00\x00\x00@\xc6J\xbb?'
p50
tp51
Rp52
g15
(g16
g17
Ntp53
Rp54
(dp55
g21
g15
(g22
g23
(dp56
g41
F2.0
sg42
F1.0
stp57
Rp58
sg28
I1410516519192770575
sbtp59
Rp60
s(g31
S'x'
p61
tp62
g4
(g5
(g9
S'\x00\x00\x00\x80\x0cDw\xbf'
p63
tp64
Rp65
g38
tp66
Rp67
s(g47
g61
tp68
g4
(g5
(g9
S'\x00\x00\x00\x80~\r\xaa\xbf'
p69
tp70
Rp71
g54
tp72
Rp73
s(g31
g48
tp74
g4
(g5
(g9
S'\x00\x00\x00\xe0\x9c\xf0\xce?'
p75
tp76
Rp77
g38
tp78
Rp79
s(g47
g32
tp80
g4
(g5
(g9
S'\x00\x00\x00`\xa0\xc6\xef?'
p81
tp82
Rp83
g54
tp84
Rp85
s(g1
S'roll'
p86
tp87
g4
(g5
(g9
S'S6\x08\xac \xb9\x08\xc0'
p88
tp89
Rp90
g19
tp91
Rp92
s(g1
S'yaw'
p93
tp94
g4
(g5
(g9
S'\xc3g\xb9\x10\x93\xdc\x06\xc0'
p95
tp96
Rp97
g19
tp98
Rp99
s.(dp0
(S'attitude'
p1
S'pitch'
p2
tp3
cpint
_build_quantity
p4
(cnumpy.core.multiarray
scalar
p5
(cnumpy
dtype
p6
(S'f8'
p7
I0
I1
tp8
Rp9
(I3
S'<'
p10
NNNI-1
I-1
I0
tp11
bS'@\x85HI9\x9a\x9a?'
p12
tp13
Rp14
ccopy_reg
_reconstructor
p15
(cpint.util
UnitsContainer
p16
c__builtin__
object
p17
Ntp18
Rp19
(dp20
V_d
p21
g15
(cpint.util
udict
p22
c__builtin__
dict
p23
(dp24
Vradian
p25
F1.0
stp26
Rp27
sV_hash
p28
I-8973016416414178273
sbtp29
Rp30
s(S'acceleration'
p31
S'z'
p32
tp33
g4
(g5
(g9
S'\x00\x00\x00`%\xd5\xcc?'
p34
tp35
Rp36
g15
(g16
g17
Ntp37
Rp38
(dp39
g21
g15
(g22
g23
(dp40
Vsecond
p41
F2.0
sVmeter
p42
F1.0
stp43
Rp44
sg28
I1410516519192770575
sbtp45
Rp46
s(S'gravity'
p47
S'y'
p48
tp49
g4
(g5
(g9
S'\x00\x00\x00 u\x99\x9a\xbf'
p50
tp51
Rp52
g15
(g16
g17
Ntp53
Rp54
(dp55
g21
g15
(g22
g23
(dp56
g41
F2.0
sg42
F1.0
stp57
Rp58
sg28
I1410516519192770575
sbtp59
Rp60
s(g31
S'x'
p61
tp62
g4
(g5
(g9
S'\x00\x00\x00\xe0\xf9\x86\xb2\xbf'
p63
tp64
Rp65
g38
tp66
Rp67
s(g47
g61
tp68
g4
(g5
(g9
S'\x00\x00\x00@\x0ct\xae\xbf'
p69
tp70
Rp71
g54
tp72
Rp73
s(g31
g48
tp74
g4
(g5
(g9
S'\x00\x00\x00`\x17!\xd1?'
p75
tp76
Rp77
g38
tp78
Rp79
s(g47
g32
tp80
g4
(g5
(g9
S'\x00\x00\x00\xa0\xb6\xee\xef?'
p81
tp82
Rp83
g54
tp84
Rp85
s(g1
S'roll'
p86
tp87
g4
(g5
(g9
S'\xba\xd3\xb4\x1f\x0e\xa8\x08\xc0'
p88
tp89
Rp90
g19
tp91
Rp92
s(g1
S'yaw'
p93
tp94
g4
(g5
(g9
S'`k\x99\xbe\xa4+\x07\xc0'
p95
tp96
Rp97
g19
tp98
Rp99
s.(dp0
(S'attitude'
p1
S'pitch'
p2
tp3
cpint
_build_quantity
p4
(cnumpy.core.multiarray
scalar
p5
(cnumpy
dtype
p6
(S'f8'
p7
I0
I1
tp8
Rp9
(I3
S'<'
p10
NNNI-1
I-1
I0
tp11
bS'\xf4\xe6\xa1X\xa8x\xb7?'
p12
tp13
Rp14
ccopy_reg
_reconstructor
p15
(cpint.util
UnitsContainer
p16
c__builtin__
object
p17
Ntp18
Rp19
(dp20
V_d
p21
g15
(cpint.util
udict
p22
c__builtin__
dict
p23
(dp24
Vradian
p25
F1.0
stp26
Rp27
sV_hash
p28
I-8973016416414178273
sbtp29
Rp30
s(S'acceleration'
p31
S'z'
p32
tp33
g4
(g5
(g9
S'\x00\x00\x00`\x90\xfb\xe6?'
p34
tp35
Rp36
g15
(g16
g17
Ntp37
Rp38
(dp39
g21
g15
(g22
g23
(dp40
Vsecond
p41
F2.0
sVmeter
p42
F1.0
stp43
Rp44
sg28
I1410516519192770575
sbtp45
Rp46
s(S'gravity'
p47
S'y'
p48
tp49
g4
(g5
(g9
S'\x00\x00\x00\xe0\xf4\x9c\xb6\xbf'
p50
tp51
Rp52
g15
(g16
g17
Ntp53
Rp54
(dp55
g21
g15
(g22
g23
(dp56
g41
F2.0
sg42
F1.0
stp57
Rp58
sg28
I1410516519192770575
sbtp59
Rp60
s(g31
S'x'
p61
tp62
g4
(g5
(g9
S'\x00\x00\x00`]\xb6\xbe?'
p63
tp64
Rp65
g38
tp66
Rp67
s(g47
g61
tp68
g4
(g5
(g9
S'\x00\x00\x00 [[\xbc\xbf'
p69
tp70
Rp71
g54
tp72
Rp73
s(g31
g48
tp74
g4
(g5
(g9
S'\x00\x00\x00\x80\xb0\x88\xd1\xbf'
p75
tp76
Rp77
g38
tp78
Rp79
s(g47
g32
tp80
g4
(g5
(g9
S'\x00\x00\x00`Z\xad\xef?'
p81
tp82
Rp83
g54
tp84
Rp85
s(g1
S'roll'
p86
tp87
g4
(g5
(g9
S'\xc1VC-\xa42\x08\xc0'
p88
tp89
Rp90
g19
tp91
Rp92
s(g1
S'yaw'
p93
tp94
g4
(g5
(g9
S'\xe8\xa1q\xf2\x8cA\x07\xc0'
p95
tp96
Rp97
g19
tp98
Rp99
s.(dp0
(S'attitude'
p1
S'pitch'
p2
tp3
cpint
_build_quantity
p4
(cnumpy.core.multiarray
scalar
p5
(cnumpy
dtype
p6
(S'f8'
p7
I0
I1
tp8
Rp9
(I3
S'<'
p10
NNNI-1
I-1
I0
tp11
bS'\x19\xa6\xe3`Ce\xe7?'
p12
tp13
Rp14
ccopy_reg
_reconstructor
p15
(cpint.util
UnitsContainer
p16
c__builtin__
object
p17
Ntp18
Rp19
(dp20
V_d
p21
g15
(cpint.util
udict
p22
c__builtin__
dict
p23
(dp24
Vradian
p25
F1.0
stp26
Rp27
sV_hash
p28
I-8973016416414178273
sbtp29
Rp30
s(S'acceleration'
p31
S'z'
p32
tp33
g4
(g5
(g9
S'\x00\x00\x00`\x84\r\xc5?'
p34
tp35
Rp36
g15
(g16
g17
Ntp37
Rp38
(dp39
g21
g15
(g22
g23
(dp40
Vsecond
p41
F2.0
sVmeter
p42
F1.0
stp43
Rp44
sg28
I1410516519192770575
sbtp45
Rp46
s(S'gravity'
p47
S'y'
p48
tp49
g4
(g5
(g9
S'\x00\x00\x00\xc0\xc6]\xe5\xbf'
p50
tp51
Rp52
g15
(g16
g17
Ntp53
Rp54
(dp55
g21
g15
(g22
g23
(dp56
g41
F2.0
sg42
F1.0
stp57
Rp58
sg28
I1410516519192770575
sbtp59
Rp60
s(g31
S'x'
p61
tp62
g4
(g5
(g9
S'\x00\x00\x00\xc0\xd3\xc2\xd3?'
p63
tp64
Rp65
g38
tp66
Rp67
s(g47
g61
tp68
g4
(g5
(g9
S'\x00\x00\x00@\xf3\x04|\xbf'
p69
tp70
Rp71
g54
tp72
Rp73
s(g31
g48
tp74
g4
(g5
(g9
S'\x00\x00\x00\xc0\x9a\xc8\xce?'
p75
tp76
Rp77
g38
tp78
Rp79
s(g47
g32
tp80
g4
(g5
(g9
S'\x00\x00\x00\xe0\x1e\xd2\xe7?'
p81
tp82
Rp83
g54
tp84
Rp85
s(g1
S'roll'
p86
tp87
g4
(g5
(g9
S'\xd9\x9fX\x85)\x0f\t\xc0'
p88
tp89
Rp90
g19
tp91
Rp92
s(g1
S'yaw'
p93
tp94
g4
(g5
(g9
S'\xfc\xde\x95E\x00\x8d\x03\xc0'
p95
tp96
Rp97
g19
tp98
Rp99
s.(dp0
(S'attitude'
p1
S'pitch'
p2
tp3
cpint
_build_quantity
p4
(cnumpy.core.multiarray
scalar
p5
(cnumpy
dtype
p6
(S'f8'
p7
I0
I1
tp8
Rp9
(I3
S'<'
p10
NNNI-1
I-1
I0
tp11
bS'\xb75\x01\x10\xfc\x94\xf4?'
p12
tp13
Rp14
ccopy_reg
_reconstructor
p15
(cpint.util
UnitsContainer
p16
c__builtin__
object
p17
Ntp18
Rp19
(dp20
V_d
p21
g15
(cpint.util
udict
p22
c__builtin__
dict
p23
(dp24
Vradian
p25
F1.0
stp26
Rp27
sV_hash
p28
I-8973016416414178273
sbtp29
Rp30
s(S'acceleration'
p31
S'z'
p32
tp33
g4
(g5
(g9
S'\x00\x00\x00\xc0\xe5\xe8\xa3\xbf'
p34
tp35
Rp36
g15
(g16
g17
Ntp37
Rp38
(dp39
g21
g15
(g22
g23
(dp40
Vsecond
p41
F2.0
sVmeter
p42
F1.0
stp43
Rp44
sg28
I1410516519192770575
sbtp45
Rp46
s(S'gravity'
p47
S'y'
p48
tp49
g4
(g5
(g9
S'\x00\x00\x00 \xe0\xb6\xee\xbf'
p50
tp51
Rp52
g15
(g16
g17
Ntp53
Rp54
(dp55
g21
g15
(g22
g23
(dp56
g41
F2.0
sg42
F1.0
stp57
Rp58
sg28
I1410516519192770575
sbtp59
Rp60
s(g31
S'x'
p61
tp62
g4
(g5
(g9
S'\x00\x00\x00\xc0\x7f\xfc\xd8\xbf'
p63
tp64
Rp65
g38
tp66
Rp67
s(g47
g61
tp68
g4
(g5
(g9
S'\x00\x00\x00@\x80y\xd0\xbf'
p69
tp70
Rp71
g54
tp72
Rp73
s(g31
g48
tp74
g4
(g5
(g9
S'\x00\x00\x00\x80\x02`\xaa?'
p75
tp76
Rp77
g38
tp78
Rp79
s(g47
g32
tp80
g4
(g5
(g9
S'\x00\x00\x00 \x8d\x97\xbc\xbf'
p81
tp82
Rp83
g54
tp84
Rp85
s(g1
S'roll'
p86
tp87
g4
(g5
(g9
S'N\x81@46\x95\xf2\xbf'
p88
tp89
Rp90
g19
tp91
Rp92
s(g1
S'yaw'
p93
tp94
g4
(g5
(g9
S'M\x82\xf5<\xf8\x83\x01@'
p95
tp96
Rp97
g19
tp98
Rp99
s.(dp0
(S'attitude'
p1
S'pitch'
p2
tp3
cpint
_build_quantity
p4
(cnumpy.core.multiarray
scalar
p5
(cnumpy
dtype
p6
(S'f8'
p7
I0
I1
tp8
Rp9
(I3
S'<'
p10
NNNI-1
I-1
I0
tp11
bS'\xdcbw\xba\xb8,\xf5?'
p12
tp13
Rp14
ccopy_reg
_reconstructor
p15
(cpint.util
UnitsContainer
p16
c__builtin__
object
p17
Ntp18
Rp19
(dp20
V_d
p21
g15
(cpint.util
udict
p22
c__builtin__
dict
p23
(dp24
Vradian
p25
F1.0
stp26
Rp27
sV_hash
p28
I-8973016416414178273
sbtp29
Rp30
s(S'acceleration'
p31
S'z'
p32
tp33
g4
(g5
(g9
S'\x00\x00\x00\xe0r\x08\xb9?'
p34
tp35
Rp36
g15
(g16
g17
Ntp37
Rp38
(dp39
g21
g15
(g22
g23
(dp40
Vsecond
p41
F2.0
sVmeter
p42
F1.0
stp43
Rp44
sg28
I1410516519192770575
sbtp45
Rp46
s(S'gravity'
p47
S'y'
p48
tp49
g4
(g5
(g9
S'\x00\x00\x00\x00\x9e\x06\xef\xbf'
p50
tp51
Rp52
g15
(g16
g17
Ntp53
Rp54
(dp55
g21
g15
(g22
g23
(dp56
g41
F2.0
sg42
F1.0
stp57
Rp58
sg28
I1410516519192770575
sbtp59
Rp60
s(g31
S'x'
p61
tp62
g4
(g5
(g9
S'\x00\x00\x00 \xa29\xe1?'
p63
tp64
Rp65
g38
tp66
Rp67
s(g47
g61
tp68
g4
(g5
(g9
S'\x00\x00\x00\xa0wE\xcf?'
p69
tp70
Rp71
g54
tp72
Rp73
s(g31
g48
tp74
g4
(g5
(g9
S'\x00\x00\x00\x00>\x1c\x97\xbf'
p75
tp76
Rp77
g38
tp78
Rp79
s(g47
g32
tp80
g4
(g5
(g9
S'\x00\x00\x00`4\xd2\x90?'
p81
tp82
Rp83
g54
tp84
Rp85
s(g1
S'roll'
p86
tp87
g4
(g5
(g9
S'e|\xe0\x08\xfa4\xfa?'
p88
tp89
Rp90
g19
tp91
Rp92
s(g1
S'yaw'
p93
tp94
g4
(g5
(g9
S'X\x02\t\xafd\x7f\xfe\xbf'
p95
tp96
Rp97
g19
tp98
Rp99
s.(dp0
(S'attitude'
p1
S'pitch'
p2
tp3
cpint
_build_quantity
p4
(cnumpy.core.multiarray
scalar
p5
(cnumpy
dtype
p6
(S'f8'
p7
I0
I1
tp8
Rp9
(I3
S'<'
p10
NNNI-1
I-1
I0
tp11
bS'2\xfb2\xd6e\xec\xe3\xbf'
p12
tp13
Rp14
ccopy_reg
_reconstructor
p15
(cpint.util
UnitsContainer
p16
c__builtin__
object
p17
Ntp18
Rp19
(dp20
V_d
p21
g15
(cpint.util
udict
p22
c__builtin__
dict
p23
(dp24
Vradian
p25
F1.0
stp26
Rp27
sV_hash
p28
I-8973016416414178273
sbtp29
Rp30
s(S'acceleration'
p31
S'z'
p32
tp33
g4
(g5
(g9
S'\x00\x00\x00\x80\x97\xcd\xaa\xbf'
p34
tp35
Rp36
g15
(g16
g17
Ntp37
Rp38
(dp39
g21
g15
(g22
g23
(dp40
Vsecond
p41
F2.0
sVmeter
p42
F1.0
stp43
Rp44
sg28
I1410516519192770575
sbtp45
Rp46
s(S'gravity'
p47
S'y'
p48
tp49
g4
(g5
(g9
S'\x00\x00\x00\xe04\xa9\xe2?'
p50
tp51
Rp52
g15
(g16
g17
Ntp53
Rp54
(dp55
g21
g15
(g22
g23
(dp56
g41
F2.0
sg42
F1.0
stp57
Rp58
sg28
I1410516519192770575
sbtp59
Rp60
s(g31
S'x'
p61
tp62
g4
(g5
(g9
S'\x00\x00\x00\xa0\x8a\xc8\xde\xbf'
p63
tp64
Rp65
g38
tp66
Rp67
s(g47
g61
tp68
g4
(g5
(g9
S'\x00\x00\x00\xa0j\xcb\xc7\xbf'
p69
tp70
Rp71
g54
tp72
Rp73
s(g31
g48
tp74
g4
(g5
(g9
S'\x00\x00\x00@\x16\xe8\xd7?'
p75
tp76
Rp77
g38
tp78
Rp79
s(g47
g32
tp80
g4
(g5
(g9
S'\x00\x00\x00\x80FN\xe9\xbf'
p81
tp82
Rp83
g54
tp84
Rp85
s(g1
S'roll'
p86
tp87
g4
(g5
(g9
S'\xcc\t\xa0\xd1r\x8d\xcd\xbf'
p88
tp89
Rp90
g19
tp91
Rp92
s(g1
S'yaw'
p93
tp94
g4
(g5
(g9
S'c\xcd\x90g!\xe9\xec?'
p95
tp96
Rp97
g19
tp98
Rp99
s.(dp0
(S'attitude'
p1
S'pitch'
p2
tp3
cpint
_build_quantity
p4
(cnumpy.core.multiarray
scalar
p5
(cnumpy
dtype
p6
(S'f8'
p7
I0
I1
tp8
Rp9
(I3
S'<'
p10
NNNI-1
I-1
I0
tp11
bS'\xc9e=\xac\x9e]\xd5?'
p12
tp13
Rp14
ccopy_reg
_reconstructor
p15
(cpint.util
UnitsContainer
p16
c__builtin__
object
p17
Ntp18
Rp19
(dp20
V_d
p21
g15
(cpint.util
udict
p22
c__builtin__
dict
p23
(dp24
Vradian
p25
F1.0
stp26
Rp27
sV_hash
p28
I-8973016416414178273
sbtp29
Rp30
s(S'acceleration'
p31
S'z'
p32
tp33
g4
(g5
(g9
S'\x00\x00\x00\xc0\xdd\x81\xc7?'
p34
tp35
Rp36
g15
(g16
g17
Ntp37
Rp38
(dp39
g21
g15
(g22
g23
(dp40
Vsecond
p41
F2.0
sVmeter
p42
F1.0
stp43
Rp44
sg28
I1410516519192770575
sbtp45
Rp46
s(S'gravity'
p47
S'y'
p48
tp49
g4
(g5
(g9
S'\x00\x00\x00\xc055\xd7\xbf'
p50
tp51
Rp52
g15
(g16
g17
Ntp53
Rp54
(dp55
g21
g15
(g22
g23
(dp56
g41
F2.0
sg42
F1.0
stp57
Rp58
sg28
I1410516519192770575
sbtp59
Rp60
s(g31
S'x'
p61
tp62
g4
(g5
(g9
S'\x00\x00\x00 \x12\xb2\xe5?'
p63
tp64
Rp65
g38
tp66
Rp67
s(g47
g61
tp68
g4
(g5
(g9
S'\x00\x00\x00 \xf2m\xea\xbf'
p69
tp70
Rp71
g54
tp72
Rp73
s(g31
g48
tp74
g4
(g5
(g9
S'\x00\x00\x00\xc0\xb5\x95\xda?'
p75
tp76
Rp77
g38
tp78
Rp79
s(g47
g32
tp80
g4
(g5
(g9
S'\x00\x00\x00 \xd1\xa0\xdb?'
p81
tp82
Rp83
g54
tp84
Rp85
s(g1
S'roll'
p86
tp87
g4
(g5
(g9
S'\xdf\xcbck\xfd\x1d\x00\xc0'
p88
tp89
Rp90
g19
tp91
Rp92
s(g1
S'yaw'
p93
tp94
g4
(g5
(g9
S'\xa7\x8d\xeeT\xb37\x01@'
p95
tp96
Rp97
g19
tp98
Rp99
s.(dp0
(S'attitude'
p1
S'pitch'
p2
tp3
cpint
_build_quantity
p4
(cnumpy.core.multiarray
scalar
p5
(cnumpy
dtype
p6
(S'f8'
p7
I0
I1
tp8
Rp9
(I3
S'<'
p10
NNNI-1
I-1
I0
tp11
bS'\xde<\xe1\xb5\xb4\xa3\xe5?'
p12
tp13
Rp14
ccopy_reg
_reconstructor
p15
(cpint.util
UnitsContainer
p16
c__builtin__
object
p17
Ntp18
Rp19
(dp20
V_d
p21
g15
(cpint.util
udict
p22
c__builtin__
dict
p23
(dp24
Vradian
p25
F1.0
stp26
Rp27
sV_hash
p28
I-8973016416414178273
sbtp29
Rp30
s(S'acceleration'
p31
S'z'
p32
tp33
g4
(g5
(g9
S'\x00\x00\x00\x00Z"\xd6\xbf'
p34
tp35
Rp36
g15
(g16
g17
Ntp37
Rp38
(dp39
g21
g15
(g22
g23
(dp40
Vsecond
p41
F2.0
sVmeter
p42
F1.0
stp43
Rp44
sg28
I1410516519192770575
sbtp45
Rp46
s(S'gravity'
p47
S'y'
p48
tp49
g4
(g5
(g9
S'\x00\x00\x00\x80\xdc$\xe3\xbf'
p50
tp51
Rp52
g15
(g16
g17
Ntp53
Rp54
(dp55
g21
g15
(g22
g23
(dp56
g41
F2.0
sg42
F1.0
stp57
Rp58
sg28
I1410516519192770575
sbtp59
Rp60
s(g31
S'x'
p61
tp62
g4
(g5
(g9
S'\x00\x00\x00@\xae\xe6\xce?'
p63
tp64
Rp65
g38
tp66
Rp67
s(g47
g61
tp68
g4
(g5
(g9
S'\x00\x00\x00`\xd4\x95\xe9?'
p69
tp70
Rp71
g54
tp72
Rp73
s(g31
g48
tp74
g4
(g5
(g9
S"\x00\x00\x00\x80<'\xe9?"
p75
tp76
Rp77
g38
tp78
Rp79
s(g47
g32
tp80
g4
(g5
(g9
S'\x00\x00\x00\xc0\xcf>\xab?'
p81
tp82
Rp83
g54
tp84
Rp85
s(g1
S'roll'
p86
tp87
g4
(g5
(g9
S'\xf2\xcb\xf3\xe6\xc6\xf8\xfa?'
p88
tp89
Rp90
g19
tp91
Rp92
s(g1
S'yaw'
p93
tp94
g4
(g5
(g9
S'Yq\x1b\x911\r\xf4\xbf'
p95
tp96
Rp97
g19
tp98
Rp99
s.(dp0
(S'attitude'
p1
S'pitch'
p2
tp3
cpint
_build_quantity
p4
(cnumpy.core.multiarray
scalar
p5
(cnumpy
dtype
p6
(S'f8'
p7
I0
I1
tp8
Rp9
(I3
S'<'
p10
NNNI-1
I-1
I0
tp11
bS'\xae\xa8\xe8]\x8bZ\xb9?'
p12
tp13
Rp14
ccopy_reg
_reconstructor
p15
(cpint.util
UnitsContainer
p16
c__builtin__
object
p17
Ntp18
Rp19
(dp20
V_d
p21
g15
(cpint.util
udict
p22
c__builtin__
dict
p23
(dp24
Vradian
p25
F1.0
stp26
Rp27
sV_hash
p28
I-8973016416414178273
sbtp29
Rp30
s(S'acceleration'
p31
S'z'
p32
tp33
g4
(g5
(g9
S'\x00\x00\x00\x00\xf1\xa8\xde\xbf'
p34
tp35
Rp36
g15
(g16
g17
Ntp37
Rp38
(dp39
g21
g15
(g22
g23
(dp40
Vsecond
p41
F2.0
sVmeter
p42
F1.0
stp43
Rp44
sg28
I1410516519192770575
sbtp45
Rp46
s(S'gravity'
p47
S'y'
p48
tp49
g4
(g5
(g9
S'\x00\x00\x00`\xf0O\xb9\xbf'
p50
tp51
Rp52
g15
(g16
g17
Ntp53
Rp54
(dp55
g21
g15
(g22
g23
(dp56
g41
F2.0
sg42
F1.0
stp57
Rp58
sg28
I1410516519192770575
sbtp59
Rp60
s(g31
S'x'
p61
tp62
g4
(g5
(g9
S'\x00\x00\x00\xa0\xf4 `?'
p63
tp64
Rp65
g38
tp66
Rp67
s(g47
g61
tp68
g4
(g5
(g9
S'\x00\x00\x00 \xfe\xee\xd2?'
p69
tp70
Rp71
g54
tp72
Rp73
s(g31
g48
tp74
g4
(g5
(g9
S'\x00\x00\x00 <\x1b\xd9?'
p75
tp76
Rp77
g38
tp78
Rp79
s(g47
g32
tp80
g4
(g5
(g9
S'\x00\x00\x00\x80Gg\xee\xbf'
p81
tp82
Rp83
g54
tp84
Rp85
s(g1
S'roll'
p86
tp87
g4
(g5
(g9
S'T\x0f\x94\x15\xa0Q\xd3?'
p88
tp89
Rp90
g19
tp91
Rp92
s(g1
S'yaw'
p93
tp94
g4
(g5
(g9
S'MV\x07\x87Q\x05\xe1?'
p95
tp96
Rp97
g19
tp98
Rp99
s.(dp0
(S'attitude'
p1
S'pitch'
p2
tp3
cpint
_build_quantity
p4
(cnumpy.core.multiarray
scalar
p5
(cnumpy
dtype
p6
(S'f8'
p7
I0
I1
tp8
Rp9
(I3
S'<'
p10
NNNI-1
I-1
I0
tp11
bS'\x1bd\xe4\xfd\xc6]\xe9?'
p12
tp13
Rp14
ccopy_reg
_reconstructor
p15
(cpint.util
UnitsContainer
p16
c__builtin__
object
p17
Ntp18
Rp19
(dp20
V_d
p21
g15
(cpint.util
udict
p22
c__builtin__
dict
p23
(dp24
Vradian
p25
F1.0
stp26
Rp27
sV_hash
p28
I-8973016416414178273
sbtp29
Rp30
s(S'acceleration'
p31
S'z'
p32
tp33
g4
(g5
(g9
S'\x00\x00\x00\x80.Y\xb7\xbf'
p34
tp35
Rp36
g15
(g16
g17
Ntp37
Rp38
(dp39
g21
g15
(g22
g23
(dp40
Vsecond
p41
F2.0
sVmeter
p42
F1.0
stp43
Rp44
sg28
I1410516519192770575
sbtp45
Rp46
s(S'gravity'
p47
S'y'
p48
tp49
g4
(g5
(g9
S'\x00\x00\x00\x00\xbf\xca\xe6\xbf'
p50
tp51
Rp52
g15
(g16
g17
Ntp53
Rp54
(dp55
g21
g15
(g22
g23
(dp56
g41
F2.0
sg42
F1.0
stp57
Rp58
sg28
I1410516519192770575
sbtp59
Rp60
s(g31
S'x'
p61
tp62
g4
(g5
(g9
S'\x00\x00\x00\x00\xd4\xd5\x89?'
p63
tp64
Rp65
g38
tp66
Rp67
s(g47
g61
tp68
g4
(g5
(g9
S'\x00\x00\x00\x80\xba\x81\xb2\xbf'
p69
tp70
Rp71
g54
tp72
Rp73
s(g31
g48
tp74
g4
(g5
(g9
S'\x00\x00\x00\xc0\x10\xf0\xa5\xbf'
p75
tp76
Rp77
g38
tp78
Rp79
s(g47
g32
tp80
g4
(g5
(g9
S'\x00\x00\x00 \x9aW\xe6\xbf'
p81
tp82
Rp83
g54
tp84
Rp85
s(g1
S'roll'
p86
tp87
g4
(g5
(g9
S'N\xaf\x8b~\x99i\xba\xbf'
p88
tp89
Rp90
g19
tp91
Rp92
s(g1
S'yaw'
p93
tp94
g4
(g5
(g9
S'`}\x0f\x19\x9f\x11\xe0?'
p95
tp96
Rp97
g19
tp98
Rp99
s.(dp0
(S'attitude'
p1
S'pitch'
p2
tp3
cpint
_build_quantity
p4
(cnumpy.core.multiarray
scalar
p5
(cnumpy
dtype
p6
(S'f8'
p7
I0
I1
tp8
Rp9
(I3
S'<'
p10
NNNI-1
I-1
I0
tp11
bS'\xa3<Z\xfcR\x9e\xe6?'
p12
tp13
Rp14
ccopy_reg
_reconstructor
p15
(cpint.util
UnitsContainer
p16
c__builtin__
object
p17
Ntp18
Rp19
(dp20
V_d
p21
g15
(cpint.util
udict
p22
c__builtin__
dict
p23
(dp24
Vradian
p25
F1.0
stp26
Rp27
sV_hash
p28
I-8973016416414178273
sbtp29
Rp30
s(S'acceleration'
p31
S'z'
p32
tp33
g4
(g5
(g9
S'\x00\x00\x00\xe0\x0f\xb4\x93\xbf'
p34
tp35
Rp36
g15
(g16
g17
Ntp37
Rp38
(dp39
g21
g15
(g22
g23
(dp40
Vsecond
p41
F2.0
sVmeter
p42
F1.0
stp43
Rp44
sg28
I1410516519192770575
sbtp45
Rp46
s(S'gravity'
p47
S'y'
p48
tp49
g4
(g5
(g9
S'\x00\x00\x00\xc0\x14\xc8\xe4\xbf'
p50
tp51
Rp52
g15
(g16
g17
Ntp53
Rp54
(dp55
g21
g15
(g22
g23
(dp56
g41
F2.0
sg42
F1.0
stp57
Rp58
sg28
I1410516519192770575
sbtp59
Rp60
s(g31
S'x'
p61
tp62
g4
(g5
(g9
S'\x00\x00\x00 \x87Pd?'
p63
tp64
Rp65
g38
tp66
Rp67
s(g47
g61
tp68
g4
(g5
(g9
S'\x00\x00\x00@\xde\xf3\x81?'
p69
tp70
Rp71
g54
tp72
Rp73
s(g31
g48
tp74
g4
(g5
(g9
S'\x00\x00\x00\xc0\x98^\x99?'
p75
tp76
Rp77
g38
tp78
Rp79
s(g47
g32
tp80
g4
(g5
(g9
S'\x00\x00\x00\x80\xffT\xe8\xbf'
p81
tp82
Rp83
g54
tp84
Rp85
s(g1
S'roll'
p86
tp87
g4
(g5
(g9
S'\xb4\xd2\x16S\xf0\x9b\x87?'
p88
tp89
Rp90
g19
tp91
Rp92
s(g1
S'yaw'
p93
tp94
g4
(g5
(g9
S'\xd1\xf0\xc7\xd3\x10\xf6\xce?'
p95
tp96
Rp97
g19
tp98
Rp99
s.