(dp0
S'ABSOLUTE_LOAD'
p1
cpint
_build_quantity
p2
(F14.901960784313726
ccopy_reg
_reconstructor
p3
(cpint.util
UnitsContainer
p4
c__builtin__
object
p5
Ntp6
Rp7
(dp8
V_d
p9
g3
(cpint.util
udict
p10
c__builtin__
dict
p11
(dp12
Vpercent
p13
F1.0
stp14
Rp15
sV_hash
p16
I6548947204208569458
sbtp17
Rp18
sS'ENGINE_LOAD'
p19
g2
(F30.19607843137255
g3
(g4
g5
Ntp20
Rp21
(dp22
g9
g3
(g10
g11
(dp23
g13
F1.0
stp24
Rp25
sg16
I6548947204208569458
sbtp26
Rp27
sS'STATUS_DRIVE_CYCLE'
p28
(iobd.OBDResponse
Status
p29
(dp30
S'FUEL_SYSTEM_MONITORING'
p31
(iobd.OBDResponse
StatusTest
p32
(dp33
S'available'
p34
I01
sS'name'
p35
g31
sS'complete'
p36
I01
sbsS'MISFIRE_MONITORING'
p37
(iobd.OBDResponse
StatusTest
p38
(dp39
g34
I01
sg35
g37
sg36
I01
sbsS'MIL'
p40
I00
sS'HEATED_CATALYST_MONITORING'
p41
(iobd.OBDResponse
StatusTest
p42
(dp43
g34
I00
sg35
g41
sg36
I01
sbsS'COMPONENT_MONITORING'
p44
(iobd.OBDResponse
StatusTest
p45
(dp46
g34
I01
sg35
g44
sg36
I01
sbsS'PM_FILTER_MONITORING'
p47
(iobd.OBDResponse
StatusTest
p48
(dp49
g34
I00
sg35
S''
p50
sg36
I00
sbsS'OXYGEN_SENSOR_MONITORING'
p51
(iobd.OBDResponse
StatusTest
p52
(dp53
g34
I01
sg35
g51
sg36
I00
sbsS'EGR_VVT_SYSTEM_MONITORING'
p54
(iobd.OBDResponse
StatusTest
p55
(dp56
g34
I01
sg35
g54
sg36
I00
sbsS'DTC_count'
p57
I0
sS'NMHC_CATALYST_MONITORING'
p58
g48
sS'EVAPORATIVE_SYSTEM_MONITORING'
p59
(iobd.OBDResponse
StatusTest
p60
(dp61
g34
I00
sg35
g59
sg36
I00
sbsS'CATALYST_MONITORING'
p62
(iobd.OBDResponse
StatusTest
p63
(dp64
g34
I01
sg35
g62
sg36
I00
sbsS'NOX_SCR_AFTERTREATMENT_MONITORING'
p65
g48
sS'BOOST_PRESSURE_MONITORING'
p66
g48
sN(iobd.OBDResponse
StatusTest
p67
(dp68
g34
I00
sg35
Nsg36
I01
sbsS'EXHAUST_GAS_SENSOR_MONITORING'
p69
g48
sS'OXYGEN_SENSOR_HEATER_MONITORING'
p70
(iobd.OBDResponse
StatusTest
p71
(dp72
g34
I01
sg35
g70
sg36
I01
sbsS'ignition_type'
p73
S'spark'
p74
sS'SECONDARY_AIR_SYSTEM_MONITORING'
p75
(iobd.OBDResponse
StatusTest
p76
(dp77
g34
I00
sg35
g75
sg36
I01
sbsbsS'INTAKE_TEMP'
p78
g2
(I28
g3
(g4
g5
Ntp79
Rp80
(dp81
g9
g3
(g10
g11
(dp82
VdegC
p83
F1.0
stp84
Rp85
sg16
I-5578095454197246211
sbtp86
Rp87
sS'COOLANT_TEMP'
p88
g2
(I83
g80
tp89
Rp90
sS'O2_S1_WR_CURRENT'
p91
g2
(F-0.01953125
g3
(g4
g5
Ntp92
Rp93
(dp94
g9
g3
(g10
g11
(dp95
Vmilliampere
p96
F1.0
stp97
Rp98
sg16
I-2536645046832034426
sbtp99
Rp100
sS'DISTANCE_SINCE_DTC_CLEAR'
p101
g2
(I8499
g3
(g4
g5
Ntp102
Rp103
(dp104
g9
g3
(g10
g11
(dp105
Vkilometer
p106
F1.0
stp107
Rp108
sg16
I-4412262003307283843
sbtp109
Rp110
sS'O2_SENSORS'
p111
((t(I00
I00
I00
I00
tp112
(I00
I00
I01
I01
tp113
tp114
sS'EGR_ERROR'
p115
g2
(F99.21875
g3
(g4
g5
Ntp116
Rp117
(dp118
g9
g3
(g10
g11
(dp119
g13
F1.0
stp120
Rp121
sg16
I6548947204208569458
sbtp122
Rp123
sS'ACCELERATOR_POS_D'
p124
g2
(F20.0
g3
(g4
g5
Ntp125
Rp126
(dp127
g9
g3
(g10
g11
(dp128
g13
F1.0
stp129
Rp130
sg16
I6548947204208569458
sbtp131
Rp132
sS'ACCELERATOR_POS_E'
p133
g2
(F9.803921568627452
g3
(g4
g5
Ntp134
Rp135
(dp136
g9
g3
(g10
g11
(dp137
g13
F1.0
stp138
Rp139
sg16
I6548947204208569458
sbtp140
Rp141
sS'SHORT_FUEL_TRIM_1'
p142
g2
(F0.0
g3
(g4
g5
Ntp143
Rp144
(dp145
g9
g3
(g10
g11
(dp146
g13
F1.0
stp147
Rp148
sg16
I6548947204208569458
sbtp149
Rp150
sS'RUN_TIME'
p151
g2
(I232
g3
(g4
g5
Ntp152
Rp153
(dp154
g9
g3
(g10
g11
(dp155
Vsecond
p156
F1.0
stp157
Rp158
sg16
I-8637397557623547456
sbtp159
Rp160
sS'FUEL_STATUS'
p161
(S'Closed loop, using oxygen sensor feedback to determine fuel mix'
p162
g50
tp163
sS'TIMING_ADVANCE'
p164
g2
(F8.0
g3
(g4
g5
Ntp165
Rp166
(dp167
g9
g3
(g10
g11
(dp168
Vdegree
p169
F1.0
stp170
Rp171
sg16
I6323676976354968772
sbtp172
Rp173
sS'RPM'
p174
g2
(F669.0
g3
(g4
g5
Ntp175
Rp176
(dp177
g9
g3
(g10
g11
(dp178
Vrevolutions_per_minute
p179
F1.0
stp180
Rp181
sg16
I-9069124146733934765
sbtp182
Rp183
sS'EVAPORATIVE_PURGE'
p184
g2
(F27.058823529411764
g3
(g4
g5
Ntp185
Rp186
(dp187
g9
g3
(g10
g11
(dp188
g13
F1.0
stp189
Rp190
sg16
I6548947204208569458
sbtp191
Rp192
sS'STATUS'
p193
(iobd.OBDResponse
Status
p194
(dp195
g31
(iobd.OBDResponse
StatusTest
p196
(dp197
g34
I01
sg35
g31
sg36
I01
sbsg37
(iobd.OBDResponse
StatusTest
p198
(dp199
g34
I01
sg35
g37
sg36
I01
sbsg40
I00
sg41
(iobd.OBDResponse
StatusTest
p200
(dp201
g34
I00
sg35
g41
sg36
I01
sbsg44
(iobd.OBDResponse
StatusTest
p202
(dp203
g34
I01
sg35
g44
sg36
I01
sbsg47
(iobd.OBDResponse
StatusTest
p204
(dp205
g34
I00
sg35
g50
sg36
I00
sbsg51
(iobd.OBDResponse
StatusTest
p206
(dp207
g34
I01
sg35
g51
sg36
I01
sbsg54
(iobd.OBDResponse
StatusTest
p208
(dp209
g34
I01
sg35
g54
sg36
I01
sbsg57
I0
sg58
g204
sg59
(iobd.OBDResponse
StatusTest
p210
(dp211
g34
I01
sg35
g59
sg36
I01
sbsg62
(iobd.OBDResponse
StatusTest
p212
(dp213
g34
I01
sg35
g62
sg36
I01
sbsg65
g204
sg66
g204
sN(iobd.OBDResponse
StatusTest
p214
(dp215
g34
I00
sg35
Nsg36
I01
sbsg69
g204
sg70
(iobd.OBDResponse
StatusTest
p216
(dp217
g34
I01
sg35
g70
sg36
I01
sbsg73
g74
sg75
(iobd.OBDResponse
StatusTest
p218
(dp219
g34
I00
sg35
g75
sg36
I01
sbsbsS'RELATIVE_THROTTLE_POS'
p220
g2
(F2.7450980392156863
g3
(g4
g5
Ntp221
Rp222
(dp223
g9
g3
(g10
g11
(dp224
g13
F1.0
stp225
Rp226
sg16
I6548947204208569458
sbtp227
Rp228
sS'EVAP_VAPOR_PRESSURE'
p229
g2
(F-172.75
g3
(g4
g5
Ntp230
Rp231
(dp232
g9
g3
(g10
g11
(dp233
Vpascal
p234
F1.0
stp235
Rp236
sg16
I768969718025819968
sbtp237
Rp238
sS'WARMUPS_SINCE_DTC_CLEAR'
p239
g2
(I255
g3
(g4
g5
Ntp240
Rp241
(dp242
g9
g3
(g10
g11
(dp243
Vcount
p244
F1.0
stp245
Rp246
sg16
I-2096556346902156826
sbtp247
Rp248
sS'COMMANDED_EGR'
p249
g2
(F0.0
g3
(g4
g5
Ntp250
Rp251
(dp252
g9
g3
(g10
g11
(dp253
g13
F1.0
stp254
Rp255
sg16
I6548947204208569458
sbtp256
Rp257
sS'INTAKE_PRESSURE'
p258
g2
(I25
g3
(g4
g5
Ntp259
Rp260
(dp261
g9
g3
(g10
g11
(dp262
Vkilopascal
p263
F1.0
stp264
Rp265
sg16
I-7845671281235440949
sbtp266
Rp267
sS'DISTANCE_W_MIL'
p268
g2
(I0
g103
tp269
Rp270
sS'BAROMETRIC_PRESSURE'
p271
g2
(I82
g3
(g4
g5
Ntp272
Rp273
(dp274
g9
g3
(g10
g11
(dp275
g263
F1.0
stp276
Rp277
sg16
I-7845671281235440949
sbtp278
Rp279
sS'O2_B1S2'
p280
g2
(F0.655
g3
(g4
g5
Ntp281
Rp282
(dp283
g9
g3
(g10
g11
(dp284
Vvolt
p285
F1.0
stp286
Rp287
sg16
I7290002954643895435
sbtp288
Rp289
sS'LONG_FUEL_TRIM_1'
p290
g2
(F-4.6875
g3
(g4
g5
Ntp291
Rp292
(dp293
g9
g3
(g10
g11
(dp294
g13
F1.0
stp295
Rp296
sg16
I6548947204208569458
sbtp297
Rp298
sS'THROTTLE_POS_B'
p299
g2
(F31.372549019607842
g3
(g4
g5
Ntp300
Rp301
(dp302
g9
g3
(g10
g11
(dp303
g13
F1.0
stp304
Rp305
sg16
I6548947204208569458
sbtp306
Rp307
sS'THROTTLE_POS'
p308
g2
(F14.117647058823529
g3
(g4
g5
Ntp309
Rp310
(dp311
g9
g3
(g10
g11
(dp312
g13
F1.0
stp313
Rp314
sg16
I6548947204208569458
sbtp315
Rp316
sS'CATALYST_TEMP_B1S1'
p317
g2
(F283.70000000000005
g80
tp318
Rp319
sS'CONTROL_MODULE_VOLTAGE'
p320
g2
(F14.175
g3
(g4
g5
Ntp321
Rp322
(dp323
g9
g3
(g10
g11
(dp324
g285
F1.0
stp325
Rp326
sg16
I7290002954643895435
sbtp327
Rp328
sS'THROTTLE_ACTUATOR'
p329
g2
(F3.1372549019607843
g3
(g4
g5
Ntp330
Rp331
(dp332
g9
g3
(g10
g11
(dp333
g13
F1.0
stp334
Rp335
sg16
I6548947204208569458
sbtp336
Rp337
sS'FUEL_LEVEL'
p338
g2
(F75.29411764705883
g3
(g4
g5
Ntp339
Rp340
(dp341
g9
g3
(g10
g11
(dp342
g13
F1.0
stp343
Rp344
sg16
I6548947204208569458
sbtp345
Rp346
sS'COMMANDED_EQUIV_RATIO'
p347
g2
(F1.0178155
g3
(g4
g5
Ntp348
Rp349
(dp350
g9
g3
(g10
g11
(dp351
Vratio
p352
F1.0
stp353
Rp354
sg16
I-5424332155707351446
sbtp355
Rp356
sS'MAF'
p357
g2
(F1.82
g3
(g4
g5
Ntp358
Rp359
(dp360
g9
g3
(g10
g11
(dp361
Vgps
p362
F1.0
stp363
Rp364
sg16
I4756223975541390489
sbtp365
Rp366
sS'SPEED'
p367
g2
(I0
g3
(g4
g5
Ntp368
Rp369
(dp370
g9
g3
(g10
g11
(dp371
Vkph
p372
F1.0
stp373
Rp374
sg16
I4328554120617486590
sbtp375
Rp376
s.(dp0
S'ABSOLUTE_LOAD'
p1
cpint
_build_quantity
p2
(F14.901960784313726
ccopy_reg
_reconstructor
p3
(cpint.util
UnitsContainer
p4
c__builtin__
object
p5
Ntp6
Rp7
(dp8
V_d
p9
g3
(cpint.util
udict
p10
c__builtin__
dict
p11
(dp12
Vpercent
p13
F1.0
stp14
Rp15
sV_hash
p16
I6548947204208569458
sbtp17
Rp18
sS'ENGINE_LOAD'
p19
g2
(F29.80392156862745
g3
(g4
g5
Ntp20
Rp21
(dp22
g9
g3
(g10
g11
(dp23
g13
F1.0
stp24
Rp25
sg16
I6548947204208569458
sbtp26
Rp27
sS'STATUS_DRIVE_CYCLE'
p28
(iobd.OBDResponse
Status
p29
(dp30
S'FUEL_SYSTEM_MONITORING'
p31
(iobd.OBDResponse
StatusTest
p32
(dp33
S'available'
p34
I01
sS'name'
p35
g31
sS'complete'
p36
I01
sbsS'MISFIRE_MONITORING'
p37
(iobd.OBDResponse
StatusTest
p38
(dp39
g34
I01
sg35
g37
sg36
I01
sbsS'MIL'
p40
I00
sS'HEATED_CATALYST_MONITORING'
p41
(iobd.OBDResponse
StatusTest
p42
(dp43
g34
I00
sg35
g41
sg36
I01
sbsS'COMPONENT_MONITORING'
p44
(iobd.OBDResponse
StatusTest
p45
(dp46
g34
I01
sg35
g44
sg36
I01
sbsS'PM_FILTER_MONITORING'
p47
(iobd.OBDResponse
StatusTest
p48
(dp49
g34
I00
sg35
S''
p50
sg36
I00
sbsS'OXYGEN_SENSOR_MONITORING'
p51
(iobd.OBDResponse
StatusTest
p52
(dp53
g34
I01
sg35
g51
sg36
I00
sbsS'EGR_VVT_SYSTEM_MONITORING'
p54
(iobd.OBDResponse
StatusTest
p55
(dp56
g34
I01
sg35
g54
sg36
I00
sbsS'DTC_count'
p57
I0
sS'NMHC_CATALYST_MONITORING'
p58
g48
sS'EVAPORATIVE_SYSTEM_MONITORING'
p59
(iobd.OBDResponse
StatusTest
p60
(dp61
g34
I00
sg35
g59
sg36
I00
sbsS'CATALYST_MONITORING'
p62
(iobd.OBDResponse
StatusTest
p63
(dp64
g34
I01
sg35
g62
sg36
I00
sbsS'NOX_SCR_AFTERTREATMENT_MONITORING'
p65
g48
sS'BOOST_PRESSURE_MONITORING'
p66
g48
sN(iobd.OBDResponse
StatusTest
p67
(dp68
g34
I00
sg35
Nsg36
I01
sbsS'EXHAUST_GAS_SENSOR_MONITORING'
p69
g48
sS'OXYGEN_SENSOR_HEATER_MONITORING'
p70
(iobd.OBDResponse
StatusTest
p71
(dp72
g34
I01
sg35
g70
sg36
I01
sbsS'ignition_type'
p73
S'spark'
p74
sS'SECONDARY_AIR_SYSTEM_MONITORING'
p75
(iobd.OBDResponse
StatusTest
p76
(dp77
g34
I00
sg35
g75
sg36
I01
sbsbsS'INTAKE_TEMP'
p78
g2
(I28
g3
(g4
g5
Ntp79
Rp80
(dp81
g9
g3
(g10
g11
(dp82
VdegC
p83
F1.0
stp84
Rp85
sg16
I-5578095454197246211
sbtp86
Rp87
sS'COOLANT_TEMP'
p88
g2
(I83
g80
tp89
Rp90
sS'O2_S1_WR_CURRENT'
p91
g2
(F0.0
g3
(g4
g5
Ntp92
Rp93
(dp94
g9
g3
(g10
g11
(dp95
Vmilliampere
p96
F1.0
stp97
Rp98
sg16
I-2536645046832034426
sbtp99
Rp100
sS'DISTANCE_SINCE_DTC_CLEAR'
p101
g2
(I8499
g3
(g4
g5
Ntp102
Rp103
(dp104
g9
g3
(g10
g11
(dp105
Vkilometer
p106
F1.0
stp107
Rp108
sg16
I-4412262003307283843
sbtp109
Rp110
sS'O2_SENSORS'
p111
((t(I00
I00
I00
I00
tp112
(I00
I00
I01
I01
tp113
tp114
sS'EGR_ERROR'
p115
g2
(F99.21875
g3
(g4
g5
Ntp116
Rp117
(dp118
g9
g3
(g10
g11
(dp119
g13
F1.0
stp120
Rp121
sg16
I6548947204208569458
sbtp122
Rp123
sS'ACCELERATOR_POS_D'
p124
g2
(F20.0
g3
(g4
g5
Ntp125
Rp126
(dp127
g9
g3
(g10
g11
(dp128
g13
F1.0
stp129
Rp130
sg16
I6548947204208569458
sbtp131
Rp132
sS'ACCELERATOR_POS_E'
p133
g2
(F9.803921568627452
g3
(g4
g5
Ntp134
Rp135
(dp136
g9
g3
(g10
g11
(dp137
g13
F1.0
stp138
Rp139
sg16
I6548947204208569458
sbtp140
Rp141
sS'SHORT_FUEL_TRIM_1'
p142
g2
(F0.0
g3
(g4
g5
Ntp143
Rp144
(dp145
g9
g3
(g10
g11
(dp146
g13
F1.0
stp147
Rp148
sg16
I6548947204208569458
sbtp149
Rp150
sS'RUN_TIME'
p151
g2
(I237
g3
(g4
g5
Ntp152
Rp153
(dp154
g9
g3
(g10
g11
(dp155
Vsecond
p156
F1.0
stp157
Rp158
sg16
I-8637397557623547456
sbtp159
Rp160
sS'FUEL_STATUS'
p161
(S'Closed loop, using oxygen sensor feedback to determine fuel mix'
p162
g50
tp163
sS'TIMING_ADVANCE'
p164
g2
(F8.5
g3
(g4
g5
Ntp165
Rp166
(dp167
g9
g3
(g10
g11
(dp168
Vdegree
p169
F1.0
stp170
Rp171
sg16
I6323676976354968772
sbtp172
Rp173
sS'RPM'
p174
g2
(F666.0
g3
(g4
g5
Ntp175
Rp176
(dp177
g9
g3
(g10
g11
(dp178
Vrevolutions_per_minute
p179
F1.0
stp180
Rp181
sg16
I-9069124146733934765
sbtp182
Rp183
sS'EVAPORATIVE_PURGE'
p184
g2
(F27.058823529411764
g3
(g4
g5
Ntp185
Rp186
(dp187
g9
g3
(g10
g11
(dp188
g13
F1.0
stp189
Rp190
sg16
I6548947204208569458
sbtp191
Rp192
sS'STATUS'
p193
(iobd.OBDResponse
Status
p194
(dp195
g31
(iobd.OBDResponse
StatusTest
p196
(dp197
g34
I01
sg35
g31
sg36
I01
sbsg37
(iobd.OBDResponse
StatusTest
p198
(dp199
g34
I01
sg35
g37
sg36
I01
sbsg40
I00
sg41
(iobd.OBDResponse
StatusTest
p200
(dp201
g34
I00
sg35
g41
sg36
I01
sbsg44
(iobd.OBDResponse
StatusTest
p202
(dp203
g34
I01
sg35
g44
sg36
I01
sbsg47
(iobd.OBDResponse
StatusTest
p204
(dp205
g34
I00
sg35
g50
sg36
I00
sbsg51
(iobd.OBDResponse
StatusTest
p206
(dp207
g34
I01
sg35
g51
sg36
I01
sbsg54
(iobd.OBDResponse
StatusTest
p208
(dp209
g34
I01
sg35
g54
sg36
I01
sbsg57
I0
sg58
g204
sg59
(iobd.OBDResponse
StatusTest
p210
(dp211
g34
I01
sg35
g59
sg36
I01
sbsg62
(iobd.OBDResponse
StatusTest
p212
(dp213
g34
I01
sg35
g62
sg36
I01
sbsg65
g204
sg66
g204
sN(iobd.OBDResponse
StatusTest
p214
(dp215
g34
I00
sg35
Nsg36
I01
sbsg69
g204
sg70
(iobd.OBDResponse
StatusTest
p216
(dp217
g34
I01
sg35
g70
sg36
I01
sbsg73
g74
sg75
(iobd.OBDResponse
StatusTest
p218
(dp219
g34
I00
sg35
g75
sg36
I01
sbsbsS'RELATIVE_THROTTLE_POS'
p220
g2
(F2.7450980392156863
g3
(g4
g5
Ntp221
Rp222
(dp223
g9
g3
(g10
g11
(dp224
g13
F1.0
stp225
Rp226
sg16
I6548947204208569458
sbtp227
Rp228
sS'EVAP_VAPOR_PRESSURE'
p229
g2
(F-172.75
g3
(g4
g5
Ntp230
Rp231
(dp232
g9
g3
(g10
g11
(dp233
Vpascal
p234
F1.0
stp235
Rp236
sg16
I768969718025819968
sbtp237
Rp238
sS'WARMUPS_SINCE_DTC_CLEAR'
p239
g2
(I255
g3
(g4
g5
Ntp240
Rp241
(dp242
g9
g3
(g10
g11
(dp243
Vcount
p244
F1.0
stp245
Rp246
sg16
I-2096556346902156826
sbtp247
Rp248
sS'COMMANDED_EGR'
p249
g2
(F0.0
g3
(g4
g5
Ntp250
Rp251
(dp252
g9
g3
(g10
g11
(dp253
g13
F1.0
stp254
Rp255
sg16
I6548947204208569458
sbtp256
Rp257
sS'INTAKE_PRESSURE'
p258
g2
(I25
g3
(g4
g5
Ntp259
Rp260
(dp261
g9
g3
(g10
g11
(dp262
Vkilopascal
p263
F1.0
stp264
Rp265
sg16
I-7845671281235440949
sbtp266
Rp267
sS'DISTANCE_W_MIL'
p268
g2
(I0
g103
tp269
Rp270
sS'BAROMETRIC_PRESSURE'
p271
g2
(I82
g3
(g4
g5
Ntp272
Rp273
(dp274
g9
g3
(g10
g11
(dp275
g263
F1.0
stp276
Rp277
sg16
I-7845671281235440949
sbtp278
Rp279
sS'O2_B1S2'
p280
g2
(F0.42
g3
(g4
g5
Ntp281
Rp282
(dp283
g9
g3
(g10
g11
(dp284
Vvolt
p285
F1.0
stp286
Rp287
sg16
I7290002954643895435
sbtp288
Rp289
sS'LONG_FUEL_TRIM_1'
p290
g2
(F-4.6875
g3
(g4
g5
Ntp291
Rp292
(dp293
g9
g3
(g10
g11
(dp294
g13
F1.0
stp295
Rp296
sg16
I6548947204208569458
sbtp297
Rp298
sS'THROTTLE_POS_B'
p299
g2
(F31.372549019607842
g3
(g4
g5
Ntp300
Rp301
(dp302
g9
g3
(g10
g11
(dp303
g13
F1.0
stp304
Rp305
sg16
I6548947204208569458
sbtp306
Rp307
sS'THROTTLE_POS'
p308
g2
(F14.117647058823529
g3
(g4
g5
Ntp309
Rp310
(dp311
g9
g3
(g10
g11
(dp312
g13
F1.0
stp313
Rp314
sg16
I6548947204208569458
sbtp315
Rp316
sS'CATALYST_TEMP_B1S1'
p317
g2
(F287.0
g80
tp318
Rp319
sS'CONTROL_MODULE_VOLTAGE'
p320
g2
(F14.325000000000001
g3
(g4
g5
Ntp321
Rp322
(dp323
g9
g3
(g10
g11
(dp324
g285
F1.0
stp325
Rp326
sg16
I7290002954643895435
sbtp327
Rp328
sS'THROTTLE_ACTUATOR'
p329
g2
(F3.1372549019607843
g3
(g4
g5
Ntp330
Rp331
(dp332
g9
g3
(g10
g11
(dp333
g13
F1.0
stp334
Rp335
sg16
I6548947204208569458
sbtp336
Rp337
sS'FUEL_LEVEL'
p338
g2
(F75.29411764705883
g3
(g4
g5
Ntp339
Rp340
(dp341
g9
g3
(g10
g11
(dp342
g13
F1.0
stp343
Rp344
sg16
I6548947204208569458
sbtp345
Rp346
sS'COMMANDED_EQUIV_RATIO'
p347
g2
(F1.0043955
g3
(g4
g5
Ntp348
Rp349
(dp350
g9
g3
(g10
g11
(dp351
Vratio
p352
F1.0
stp353
Rp354
sg16
I-5424332155707351446
sbtp355
Rp356
sS'MAF'
p357
g2
(F1.84
g3
(g4
g5
Ntp358
Rp359
(dp360
g9
g3
(g10
g11
(dp361
Vgps
p362
F1.0
stp363
Rp364
sg16
I4756223975541390489
sbtp365
Rp366
sS'SPEED'
p367
g2
(I0
g3
(g4
g5
Ntp368
Rp369
(dp370
g9
g3
(g10
g11
(dp371
Vkph
p372
F1.0
stp373
Rp374
sg16
I4328554120617486590
sbtp375
Rp376
s.(dp0
S'ABSOLUTE_LOAD'
p1
cpint
_build_quantity
p2
(F14.901960784313726
ccopy_reg
_reconstructor
p3
(cpint.util
UnitsContainer
p4
c__builtin__
object
p5
Ntp6
Rp7
(dp8
V_d
p9
g3
(cpint.util
udict
p10
c__builtin__
dict
p11
(dp12
Vpercent
p13
F1.0
stp14
Rp15
sV_hash
p16
I6548947204208569458
sbtp17
Rp18
sS'ENGINE_LOAD'
p19
g2
(F29.80392156862745
g3
(g4
g5
Ntp20
Rp21
(dp22
g9
g3
(g10
g11
(dp23
g13
F1.0
stp24
Rp25
sg16
I6548947204208569458
sbtp26
Rp27
sS'STATUS_DRIVE_CYCLE'
p28
(iobd.OBDResponse
Status
p29
(dp30
S'FUEL_SYSTEM_MONITORING'
p31
(iobd.OBDResponse
StatusTest
p32
(dp33
S'available'
p34
I01
sS'name'
p35
g31
sS'complete'
p36
I01
sbsS'MISFIRE_MONITORING'
p37
(iobd.OBDResponse
StatusTest
p38
(dp39
g34
I01
sg35
g37
sg36
I01
sbsS'MIL'
p40
I00
sS'HEATED_CATALYST_MONITORING'
p41
(iobd.OBDResponse
StatusTest
p42
(dp43
g34
I00
sg35
g41
sg36
I01
sbsS'COMPONENT_MONITORING'
p44
(iobd.OBDResponse
StatusTest
p45
(dp46
g34
I01
sg35
g44
sg36
I01
sbsS'PM_FILTER_MONITORING'
p47
(iobd.OBDResponse
StatusTest
p48
(dp49
g34
I00
sg35
S''
p50
sg36
I00
sbsS'OXYGEN_SENSOR_MONITORING'
p51
(iobd.OBDResponse
StatusTest
p52
(dp53
g34
I01
sg35
g51
sg36
I00
sbsS'EGR_VVT_SYSTEM_MONITORING'
p54
(iobd.OBDResponse
StatusTest
p55
(dp56
g34
I01
sg35
g54
sg36
I00
sbsS'DTC_count'
p57
I0
sS'NMHC_CATALYST_MONITORING'
p58
g48
sS'EVAPORATIVE_SYSTEM_MONITORING'
p59
(iobd.OBDResponse
StatusTest
p60
(dp61
g34
I00
sg35
g59
sg36
I00
sbsS'CATALYST_MONITORING'
p62
(iobd.OBDResponse
StatusTest
p63
(dp64
g34
I01
sg35
g62
sg36
I00
sbsS'NOX_SCR_AFTERTREATMENT_MONITORING'
p65
g48
sS'BOOST_PRESSURE_MONITORING'
p66
g48
sN(iobd.OBDResponse
StatusTest
p67
(dp68
g34
I00
sg35
Nsg36
I01
sbsS'EXHAUST_GAS_SENSOR_MONITORING'
p69
g48
sS'OXYGEN_SENSOR_HEATER_MONITORING'
p70
(iobd.OBDResponse
StatusTest
p71
(dp72
g34
I01
sg35
g70
sg36
I01
sbsS'ignition_type'
p73
S'spark'
p74
sS'SECONDARY_AIR_SYSTEM_MONITORING'
p75
(iobd.OBDResponse
StatusTest
p76
(dp77
g34
I00
sg35
g75
sg36
I01
sbsbsS'INTAKE_TEMP'
p78
g2
(I28
g3
(g4
g5
Ntp79
Rp80
(dp81
g9
g3
(g10
g11
(dp82
VdegC
p83
F1.0
stp84
Rp85
sg16
I-5578095454197246211
sbtp86
Rp87
sS'COOLANT_TEMP'
p88
g2
(I84
g80
tp89
Rp90
sS'O2_S1_WR_CURRENT'
p91
g2
(F0.00390625
g3
(g4
g5
Ntp92
Rp93
(dp94
g9
g3
(g10
g11
(dp95
Vmilliampere
p96
F1.0
stp97
Rp98
sg16
I-2536645046832034426
sbtp99
Rp100
sS'DISTANCE_SINCE_DTC_CLEAR'
p101
g2
(I8499
g3
(g4
g5
Ntp102
Rp103
(dp104
g9
g3
(g10
g11
(dp105
Vkilometer
p106
F1.0
stp107
Rp108
sg16
I-4412262003307283843
sbtp109
Rp110
sS'O2_SENSORS'
p111
((t(I00
I00
I00
I00
tp112
(I00
I00
I01
I01
tp113
tp114
sS'EGR_ERROR'
p115
g2
(F99.21875
g3
(g4
g5
Ntp116
Rp117
(dp118
g9
g3
(g10
g11
(dp119
g13
F1.0
stp120
Rp121
sg16
I6548947204208569458
sbtp122
Rp123
sS'ACCELERATOR_POS_D'
p124
g2
(F20.0
g3
(g4
g5
Ntp125
Rp126
(dp127
g9
g3
(g10
g11
(dp128
g13
F1.0
stp129
Rp130
sg16
I6548947204208569458
sbtp131
Rp132
sS'ACCELERATOR_POS_E'
p133
g2
(F9.803921568627452
g3
(g4
g5
Ntp134
Rp135
(dp136
g9
g3
(g10
g11
(dp137
g13
F1.0
stp138
Rp139
sg16
I6548947204208569458
sbtp140
Rp141
sS'SHORT_FUEL_TRIM_1'
p142
g2
(F0.78125
g3
(g4
g5
Ntp143
Rp144
(dp145
g9
g3
(g10
g11
(dp146
g13
F1.0
stp147
Rp148
sg16
I6548947204208569458
sbtp149
Rp150
sS'RUN_TIME'
p151
g2
(I271
g3
(g4
g5
Ntp152
Rp153
(dp154
g9
g3
(g10
g11
(dp155
Vsecond
p156
F1.0
stp157
Rp158
sg16
I-8637397557623547456
sbtp159
Rp160
sS'FUEL_STATUS'
p161
(S'Closed loop, using oxygen sensor feedback to determine fuel mix'
p162
g50
tp163
sS'TIMING_ADVANCE'
p164
g2
(F8.0
g3
(g4
g5
Ntp165
Rp166
(dp167
g9
g3
(g10
g11
(dp168
Vdegree
p169
F1.0
stp170
Rp171
sg16
I6323676976354968772
sbtp172
Rp173
sS'RPM'
p174
g2
(F669.0
g3
(g4
g5
Ntp175
Rp176
(dp177
g9
g3
(g10
g11
(dp178
Vrevolutions_per_minute
p179
F1.0
stp180
Rp181
sg16
I-9069124146733934765
sbtp182
Rp183
sS'EVAPORATIVE_PURGE'
p184
g2
(F27.058823529411764
g3
(g4
g5
Ntp185
Rp186
(dp187
g9
g3
(g10
g11
(dp188
g13
F1.0
stp189
Rp190
sg16
I6548947204208569458
sbtp191
Rp192
sS'STATUS'
p193
(iobd.OBDResponse
Status
p194
(dp195
g31
(iobd.OBDResponse
StatusTest
p196
(dp197
g34
I01
sg35
g31
sg36
I01
sbsg37
(iobd.OBDResponse
StatusTest
p198
(dp199
g34
I01
sg35
g37
sg36
I01
sbsg40
I00
sg41
(iobd.OBDResponse
StatusTest
p200
(dp201
g34
I00
sg35
g41
sg36
I01
sbsg44
(iobd.OBDResponse
StatusTest
p202
(dp203
g34
I01
sg35
g44
sg36
I01
sbsg47
(iobd.OBDResponse
StatusTest
p204
(dp205
g34
I00
sg35
g50
sg36
I00
sbsg51
(iobd.OBDResponse
StatusTest
p206
(dp207
g34
I01
sg35
g51
sg36
I01
sbsg54
(iobd.OBDResponse
StatusTest
p208
(dp209
g34
I01
sg35
g54
sg36
I01
sbsg57
I0
sg58
g204
sg59
(iobd.OBDResponse
StatusTest
p210
(dp211
g34
I01
sg35
g59
sg36
I01
sbsg62
(iobd.OBDResponse
StatusTest
p212
(dp213
g34
I01
sg35
g62
sg36
I01
sbsg65
g204
sg66
g204
sN(iobd.OBDResponse
StatusTest
p214
(dp215
g34
I00
sg35
Nsg36
I01
sbsg69
g204
sg70
(iobd.OBDResponse
StatusTest
p216
(dp217
g34
I01
sg35
g70
sg36
I01
sbsg73
g74
sg75
(iobd.OBDResponse
StatusTest
p218
(dp219
g34
I00
sg35
g75
sg36
I01
sbsbsS'RELATIVE_THROTTLE_POS'
p220
g2
(F2.7450980392156863
g3
(g4
g5
Ntp221
Rp222
(dp223
g9
g3
(g10
g11
(dp224
g13
F1.0
stp225
Rp226
sg16
I6548947204208569458
sbtp227
Rp228
sS'EVAP_VAPOR_PRESSURE'
p229
g2
(F-172.75
g3
(g4
g5
Ntp230
Rp231
(dp232
g9
g3
(g10
g11
(dp233
Vpascal
p234
F1.0
stp235
Rp236
sg16
I768969718025819968
sbtp237
Rp238
sS'WARMUPS_SINCE_DTC_CLEAR'
p239
g2
(I255
g3
(g4
g5
Ntp240
Rp241
(dp242
g9
g3
(g10
g11
(dp243
Vcount
p244
F1.0
stp245
Rp246
sg16
I-2096556346902156826
sbtp247
Rp248
sS'COMMANDED_EGR'
p249
g2
(F0.0
g3
(g4
g5
Ntp250
Rp251
(dp252
g9
g3
(g10
g11
(dp253
g13
F1.0
stp254
Rp255
sg16
I6548947204208569458
sbtp256
Rp257
sS'INTAKE_PRESSURE'
p258
g2
(I24
g3
(g4
g5
Ntp259
Rp260
(dp261
g9
g3
(g10
g11
(dp262
Vkilopascal
p263
F1.0
stp264
Rp265
sg16
I-7845671281235440949
sbtp266
Rp267
sS'DISTANCE_W_MIL'
p268
g2
(I0
g103
tp269
Rp270
sS'BAROMETRIC_PRESSURE'
p271
g2
(I82
g3
(g4
g5
Ntp272
Rp273
(dp274
g9
g3
(g10
g11
(dp275
g263
F1.0
stp276
Rp277
sg16
I-7845671281235440949
sbtp278
Rp279
sS'O2_B1S2'
p280
g2
(F0.17
g3
(g4
g5
Ntp281
Rp282
(dp283
g9
g3
(g10
g11
(dp284
Vvolt
p285
F1.0
stp286
Rp287
sg16
I7290002954643895435
sbtp288
Rp289
sS'LONG_FUEL_TRIM_1'
p290
g2
(F-4.6875
g3
(g4
g5
Ntp291
Rp292
(dp293
g9
g3
(g10
g11
(dp294
g13
F1.0
stp295
Rp296
sg16
I6548947204208569458
sbtp297
Rp298
sS'THROTTLE_POS_B'
p299
g2
(F31.372549019607842
g3
(g4
g5
Ntp300
Rp301
(dp302
g9
g3
(g10
g11
(dp303
g13
F1.0
stp304
Rp305
sg16
I6548947204208569458
sbtp306
Rp307
sS'THROTTLE_POS'
p308
g2
(F14.117647058823529
g3
(g4
g5
Ntp309
Rp310
(dp311
g9
g3
(g10
g11
(dp312
g13
F1.0
stp313
Rp314
sg16
I6548947204208569458
sbtp315
Rp316
sS'CATALYST_TEMP_B1S1'
p317
g2
(F307.0
g80
tp318
Rp319
sS'CONTROL_MODULE_VOLTAGE'
p320
g2
(F14.275
g3
(g4
g5
Ntp321
Rp322
(dp323
g9
g3
(g10
g11
(dp324
g285
F1.0
stp325
Rp326
sg16
I7290002954643895435
sbtp327
Rp328
sS'THROTTLE_ACTUATOR'
p329
g2
(F3.1372549019607843
g3
(g4
g5
Ntp330
Rp331
(dp332
g9
g3
(g10
g11
(dp333
g13
F1.0
stp334
Rp335
sg16
I6548947204208569458
sbtp336
Rp337
sS'FUEL_LEVEL'
p338
g2
(F75.29411764705883
g3
(g4
g5
Ntp339
Rp340
(dp341
g9
g3
(g10
g11
(dp342
g13
F1.0
stp343
Rp344
sg16
I6548947204208569458
sbtp345
Rp346
sS'COMMANDED_EQUIV_RATIO'
p347
g2
(F0.992104
g3
(g4
g5
Ntp348
Rp349
(dp350
g9
g3
(g10
g11
(dp351
Vratio
p352
F1.0
stp353
Rp354
sg16
I-5424332155707351446
sbtp355
Rp356
sS'MAF'
p357
g2
(F1.78
g3
(g4
g5
Ntp358
Rp359
(dp360
g9
g3
(g10
g11
(dp361
Vgps
p362
F1.0
stp363
Rp364
sg16
I4756223975541390489
sbtp365
Rp366
sS'SPEED'
p367
g2
(I0
g3
(g4
g5
Ntp368
Rp369
(dp370
g9
g3
(g10
g11
(dp371
Vkph
p372
F1.0
stp373
Rp374
sg16
I4328554120617486590
sbtp375
Rp376
s.(dp0
S'ABSOLUTE_LOAD'
p1
cpint
_build_quantity
p2
(F14.901960784313726
ccopy_reg
_reconstructor
p3
(cpint.util
UnitsContainer
p4
c__builtin__
object
p5
Ntp6
Rp7
(dp8
V_d
p9
g3
(cpint.util
udict
p10
c__builtin__
dict
p11
(dp12
Vpercent
p13
F1.0
stp14
Rp15
sV_hash
p16
I6548947204208569458
sbtp17
Rp18
sS'ENGINE_LOAD'
p19
g2
(F30.19607843137255
g3
(g4
g5
Ntp20
Rp21
(dp22
g9
g3
(g10
g11
(dp23
g13
F1.0
stp24
Rp25
sg16
I6548947204208569458
sbtp26
Rp27
sS'STATUS_DRIVE_CYCLE'
p28
(iobd.OBDResponse
Status
p29
(dp30
S'FUEL_SYSTEM_MONITORING'
p31
(iobd.OBDResponse
StatusTest
p32
(dp33
S'available'
p34
I01
sS'name'
p35
g31
sS'complete'
p36
I01
sbsS'MISFIRE_MONITORING'
p37
(iobd.OBDResponse
StatusTest
p38
(dp39
g34
I01
sg35
g37
sg36
I01
sbsS'MIL'
p40
I00
sS'HEATED_CATALYST_MONITORING'
p41
(iobd.OBDResponse
StatusTest
p42
(dp43
g34
I00
sg35
g41
sg36
I01
sbsS'COMPONENT_MONITORING'
p44
(iobd.OBDResponse
StatusTest
p45
(dp46
g34
I01
sg35
g44
sg36
I01
sbsS'PM_FILTER_MONITORING'
p47
(iobd.OBDResponse
StatusTest
p48
(dp49
g34
I00
sg35
S''
p50
sg36
I00
sbsS'OXYGEN_SENSOR_MONITORING'
p51
(iobd.OBDResponse
StatusTest
p52
(dp53
g34
I01
sg35
g51
sg36
I00
sbsS'EGR_VVT_SYSTEM_MONITORING'
p54
(iobd.OBDResponse
StatusTest
p55
(dp56
g34
I01
sg35
g54
sg36
I00
sbsS'DTC_count'
p57
I0
sS'NMHC_CATALYST_MONITORING'
p58
g48
sS'EVAPORATIVE_SYSTEM_MONITORING'
p59
(iobd.OBDResponse
StatusTest
p60
(dp61
g34
I00
sg35
g59
sg36
I00
sbsS'CATALYST_MONITORING'
p62
(iobd.OBDResponse
StatusTest
p63
(dp64
g34
I01
sg35
g62
sg36
I00
sbsS'NOX_SCR_AFTERTREATMENT_MONITORING'
p65
g48
sS'BOOST_PRESSURE_MONITORING'
p66
g48
sN(iobd.OBDResponse
StatusTest
p67
(dp68
g34
I00
sg35
Nsg36
I01
sbsS'EXHAUST_GAS_SENSOR_MONITORING'
p69
g48
sS'OXYGEN_SENSOR_HEATER_MONITORING'
p70
(iobd.OBDResponse
StatusTest
p71
(dp72
g34
I01
sg35
g70
sg36
I01
sbsS'ignition_type'
p73
S'spark'
p74
sS'SECONDARY_AIR_SYSTEM_MONITORING'
p75
(iobd.OBDResponse
StatusTest
p76
(dp77
g34
I00
sg35
g75
sg36
I01
sbsbsS'INTAKE_TEMP'
p78
g2
(I29
g3
(g4
g5
Ntp79
Rp80
(dp81
g9
g3
(g10
g11
(dp82
VdegC
p83
F1.0
stp84
Rp85
sg16
I-5578095454197246211
sbtp86
Rp87
sS'COOLANT_TEMP'
p88
g2
(I84
g80
tp89
Rp90
sS'O2_S1_WR_CURRENT'
p91
g2
(F-0.00390625
g3
(g4
g5
Ntp92
Rp93
(dp94
g9
g3
(g10
g11
(dp95
Vmilliampere
p96
F1.0
stp97
Rp98
sg16
I-2536645046832034426
sbtp99
Rp100
sS'DISTANCE_SINCE_DTC_CLEAR'
p101
g2
(I8499
g3
(g4
g5
Ntp102
Rp103
(dp104
g9
g3
(g10
g11
(dp105
Vkilometer
p106
F1.0
stp107
Rp108
sg16
I-4412262003307283843
sbtp109
Rp110
sS'O2_SENSORS'
p111
((t(I00
I00
I00
I00
tp112
(I00
I00
I01
I01
tp113
tp114
sS'EGR_ERROR'
p115
g2
(F99.21875
g3
(g4
g5
Ntp116
Rp117
(dp118
g9
g3
(g10
g11
(dp119
g13
F1.0
stp120
Rp121
sg16
I6548947204208569458
sbtp122
Rp123
sS'ACCELERATOR_POS_D'
p124
g2
(F20.0
g3
(g4
g5
Ntp125
Rp126
(dp127
g9
g3
(g10
g11
(dp128
g13
F1.0
stp129
Rp130
sg16
I6548947204208569458
sbtp131
Rp132
sS'ACCELERATOR_POS_E'
p133
g2
(F9.803921568627452
g3
(g4
g5
Ntp134
Rp135
(dp136
g9
g3
(g10
g11
(dp137
g13
F1.0
stp138
Rp139
sg16
I6548947204208569458
sbtp140
Rp141
sS'SHORT_FUEL_TRIM_1'
p142
g2
(F0.78125
g3
(g4
g5
Ntp143
Rp144
(dp145
g9
g3
(g10
g11
(dp146
g13
F1.0
stp147
Rp148
sg16
I6548947204208569458
sbtp149
Rp150
sS'RUN_TIME'
p151
g2
(I277
g3
(g4
g5
Ntp152
Rp153
(dp154
g9
g3
(g10
g11
(dp155
Vsecond
p156
F1.0
stp157
Rp158
sg16
I-8637397557623547456
sbtp159
Rp160
sS'FUEL_STATUS'
p161
(S'Closed loop, using oxygen sensor feedback to determine fuel mix'
p162
g50
tp163
sS'TIMING_ADVANCE'
p164
g2
(F7.0
g3
(g4
g5
Ntp165
Rp166
(dp167
g9
g3
(g10
g11
(dp168
Vdegree
p169
F1.0
stp170
Rp171
sg16
I6323676976354968772
sbtp172
Rp173
sS'RPM'
p174
g2
(F670.0
g3
(g4
g5
Ntp175
Rp176
(dp177
g9
g3
(g10
g11
(dp178
Vrevolutions_per_minute
p179
F1.0
stp180
Rp181
sg16
I-9069124146733934765
sbtp182
Rp183
sS'EVAPORATIVE_PURGE'
p184
g2
(F27.058823529411764
g3
(g4
g5
Ntp185
Rp186
(dp187
g9
g3
(g10
g11
(dp188
g13
F1.0
stp189
Rp190
sg16
I6548947204208569458
sbtp191
Rp192
sS'STATUS'
p193
(iobd.OBDResponse
Status
p194
(dp195
g31
(iobd.OBDResponse
StatusTest
p196
(dp197
g34
I01
sg35
g31
sg36
I01
sbsg37
(iobd.OBDResponse
StatusTest
p198
(dp199
g34
I01
sg35
g37
sg36
I01
sbsg40
I00
sg41
(iobd.OBDResponse
StatusTest
p200
(dp201
g34
I00
sg35
g41
sg36
I01
sbsg44
(iobd.OBDResponse
StatusTest
p202
(dp203
g34
I01
sg35
g44
sg36
I01
sbsg47
(iobd.OBDResponse
StatusTest
p204
(dp205
g34
I00
sg35
g50
sg36
I00
sbsg51
(iobd.OBDResponse
StatusTest
p206
(dp207
g34
I01
sg35
g51
sg36
I01
sbsg54
(iobd.OBDResponse
StatusTest
p208
(dp209
g34
I01
sg35
g54
sg36
I01
sbsg57
I0
sg58
g204
sg59
(iobd.OBDResponse
StatusTest
p210
(dp211
g34
I01
sg35
g59
sg36
I01
sbsg62
(iobd.OBDResponse
StatusTest
p212
(dp213
g34
I01
sg35
g62
sg36
I01
sbsg65
g204
sg66
g204
sN(iobd.OBDResponse
StatusTest
p214
(dp215
g34
I00
sg35
Nsg36
I01
sbsg69
g204
sg70
(iobd.OBDResponse
StatusTest
p216
(dp217
g34
I01
sg35
g70
sg36
I01
sbsg73
g74
sg75
(iobd.OBDResponse
StatusTest
p218
(dp219
g34
I00
sg35
g75
sg36
I01
sbsbsS'RELATIVE_THROTTLE_POS'
p220
g2
(F2.7450980392156863
g3
(g4
g5
Ntp221
Rp222
(dp223
g9
g3
(g10
g11
(dp224
g13
F1.0
stp225
Rp226
sg16
I6548947204208569458
sbtp227
Rp228
sS'EVAP_VAPOR_PRESSURE'
p229
g2
(F-172.75
g3
(g4
g5
Ntp230
Rp231
(dp232
g9
g3
(g10
g11
(dp233
Vpascal
p234
F1.0
stp235
Rp236
sg16
I768969718025819968
sbtp237
Rp238
sS'WARMUPS_SINCE_DTC_CLEAR'
p239
g2
(I255
g3
(g4
g5
Ntp240
Rp241
(dp242
g9
g3
(g10
g11
(dp243
Vcount
p244
F1.0
stp245
Rp246
sg16
I-2096556346902156826
sbtp247
Rp248
sS'COMMANDED_EGR'
p249
g2
(F0.0
g3
(g4
g5
Ntp250
Rp251
(dp252
g9
g3
(g10
g11
(dp253
g13
F1.0
stp254
Rp255
sg16
I6548947204208569458
sbtp256
Rp257
sS'INTAKE_PRESSURE'
p258
g2
(I24
g3
(g4
g5
Ntp259
Rp260
(dp261
g9
g3
(g10
g11
(dp262
Vkilopascal
p263
F1.0
stp264
Rp265
sg16
I-7845671281235440949
sbtp266
Rp267
sS'DISTANCE_W_MIL'
p268
g2
(I0
g103
tp269
Rp270
sS'BAROMETRIC_PRESSURE'
p271
g2
(I82
g3
(g4
g5
Ntp272
Rp273
(dp274
g9
g3
(g10
g11
(dp275
g263
F1.0
stp276
Rp277
sg16
I-7845671281235440949
sbtp278
Rp279
sS'O2_B1S2'
p280
g2
(F0.485
g3
(g4
g5
Ntp281
Rp282
(dp283
g9
g3
(g10
g11
(dp284
Vvolt
p285
F1.0
stp286
Rp287
sg16
I7290002954643895435
sbtp288
Rp289
sS'LONG_FUEL_TRIM_1'
p290
g2
(F-4.6875
g3
(g4
g5
Ntp291
Rp292
(dp293
g9
g3
(g10
g11
(dp294
g13
F1.0
stp295
Rp296
sg16
I6548947204208569458
sbtp297
Rp298
sS'THROTTLE_POS_B'
p299
g2
(F31.372549019607842
g3
(g4
g5
Ntp300
Rp301
(dp302
g9
g3
(g10
g11
(dp303
g13
F1.0
stp304
Rp305
sg16
I6548947204208569458
sbtp306
Rp307
sS'THROTTLE_POS'
p308
g2
(F14.117647058823529
g3
(g4
g5
Ntp309
Rp310
(dp311
g9
g3
(g10
g11
(dp312
g13
F1.0
stp313
Rp314
sg16
I6548947204208569458
sbtp315
Rp316
sS'CATALYST_TEMP_B1S1'
p317
g2
(F310.0
g80
tp318
Rp319
sS'CONTROL_MODULE_VOLTAGE'
p320
g2
(F14.3
g3
(g4
g5
Ntp321
Rp322
(dp323
g9
g3
(g10
g11
(dp324
g285
F1.0
stp325
Rp326
sg16
I7290002954643895435
sbtp327
Rp328
sS'THROTTLE_ACTUATOR'
p329
g2
(F2.7450980392156863
g3
(g4
g5
Ntp330
Rp331
(dp332
g9
g3
(g10
g11
(dp333
g13
F1.0
stp334
Rp335
sg16
I6548947204208569458
sbtp336
Rp337
sS'FUEL_LEVEL'
p338
g2
(F75.29411764705883
g3
(g4
g5
Ntp339
Rp340
(dp341
g9
g3
(g10
g11
(dp342
g13
F1.0
stp343
Rp344
sg16
I6548947204208569458
sbtp345
Rp346
sS'COMMANDED_EQUIV_RATIO'
p347
g2
(F1.004853
g3
(g4
g5
Ntp348
Rp349
(dp350
g9
g3
(g10
g11
(dp351
Vratio
p352
F1.0
stp353
Rp354
sg16
I-5424332155707351446
sbtp355
Rp356
sS'MAF'
p357
g2
(F1.72
g3
(g4
g5
Ntp358
Rp359
(dp360
g9
g3
(g10
g11
(dp361
Vgps
p362
F1.0
stp363
Rp364
sg16
I4756223975541390489
sbtp365
Rp366
sS'SPEED'
p367
g2
(I0
g3
(g4
g5
Ntp368
Rp369
(dp370
g9
g3
(g10
g11
(dp371
Vkph
p372
F1.0
stp373
Rp374
sg16
I4328554120617486590
sbtp375
Rp376
s.(dp0
S'ABSOLUTE_LOAD'
p1
cpint
_build_quantity
p2
(F27.45098039215686
ccopy_reg
_reconstructor
p3
(cpint.util
UnitsContainer
p4
c__builtin__
object
p5
Ntp6
Rp7
(dp8
V_d
p9
g3
(cpint.util
udict
p10
c__builtin__
dict
p11
(dp12
Vpercent
p13
F1.0
stp14
Rp15
sV_hash
p16
I6548947204208569458
sbtp17
Rp18
sS'ENGINE_LOAD'
p19
g2
(F52.549019607843135
g3
(g4
g5
Ntp20
Rp21
(dp22
g9
g3
(g10
g11
(dp23
g13
F1.0
stp24
Rp25
sg16
I6548947204208569458
sbtp26
Rp27
sS'STATUS_DRIVE_CYCLE'
p28
(iobd.OBDResponse
Status
p29
(dp30
S'FUEL_SYSTEM_MONITORING'
p31
(iobd.OBDResponse
StatusTest
p32
(dp33
S'available'
p34
I01
sS'name'
p35
g31
sS'complete'
p36
I01
sbsS'MISFIRE_MONITORING'
p37
(iobd.OBDResponse
StatusTest
p38
(dp39
g34
I01
sg35
g37
sg36
I01
sbsS'MIL'
p40
I00
sS'HEATED_CATALYST_MONITORING'
p41
(iobd.OBDResponse
StatusTest
p42
(dp43
g34
I00
sg35
g41
sg36
I01
sbsS'COMPONENT_MONITORING'
p44
(iobd.OBDResponse
StatusTest
p45
(dp46
g34
I01
sg35
g44
sg36
I01
sbsS'PM_FILTER_MONITORING'
p47
(iobd.OBDResponse
StatusTest
p48
(dp49
g34
I00
sg35
S''
p50
sg36
I00
sbsS'OXYGEN_SENSOR_MONITORING'
p51
(iobd.OBDResponse
StatusTest
p52
(dp53
g34
I01
sg35
g51
sg36
I00
sbsS'EGR_VVT_SYSTEM_MONITORING'
p54
(iobd.OBDResponse
StatusTest
p55
(dp56
g34
I01
sg35
g54
sg36
I00
sbsS'DTC_count'
p57
I0
sS'NMHC_CATALYST_MONITORING'
p58
g48
sS'EVAPORATIVE_SYSTEM_MONITORING'
p59
(iobd.OBDResponse
StatusTest
p60
(dp61
g34
I00
sg35
g59
sg36
I00
sbsS'CATALYST_MONITORING'
p62
(iobd.OBDResponse
StatusTest
p63
(dp64
g34
I01
sg35
g62
sg36
I00
sbsS'NOX_SCR_AFTERTREATMENT_MONITORING'
p65
g48
sS'BOOST_PRESSURE_MONITORING'
p66
g48
sN(iobd.OBDResponse
StatusTest
p67
(dp68
g34
I00
sg35
Nsg36
I01
sbsS'EXHAUST_GAS_SENSOR_MONITORING'
p69
g48
sS'OXYGEN_SENSOR_HEATER_MONITORING'
p70
(iobd.OBDResponse
StatusTest
p71
(dp72
g34
I01
sg35
g70
sg36
I01
sbsS'ignition_type'
p73
S'spark'
p74
sS'SECONDARY_AIR_SYSTEM_MONITORING'
p75
(iobd.OBDResponse
StatusTest
p76
(dp77
g34
I00
sg35
g75
sg36
I01
sbsbsS'INTAKE_TEMP'
p78
g2
(I29
g3
(g4
g5
Ntp79
Rp80
(dp81
g9
g3
(g10
g11
(dp82
VdegC
p83
F1.0
stp84
Rp85
sg16
I-5578095454197246211
sbtp86
Rp87
sS'COOLANT_TEMP'
p88
g2
(I85
g80
tp89
Rp90
sS'O2_S1_WR_CURRENT'
p91
g2
(F-0.00390625
g3
(g4
g5
Ntp92
Rp93
(dp94
g9
g3
(g10
g11
(dp95
Vmilliampere
p96
F1.0
stp97
Rp98
sg16
I-2536645046832034426
sbtp99
Rp100
sS'DISTANCE_SINCE_DTC_CLEAR'
p101
g2
(I8499
g3
(g4
g5
Ntp102
Rp103
(dp104
g9
g3
(g10
g11
(dp105
Vkilometer
p106
F1.0
stp107
Rp108
sg16
I-4412262003307283843
sbtp109
Rp110
sS'O2_SENSORS'
p111
((t(I00
I00
I00
I00
tp112
(I00
I00
I01
I01
tp113
tp114
sS'EGR_ERROR'
p115
g2
(F99.21875
g3
(g4
g5
Ntp116
Rp117
(dp118
g9
g3
(g10
g11
(dp119
g13
F1.0
stp120
Rp121
sg16
I6548947204208569458
sbtp122
Rp123
sS'ACCELERATOR_POS_D'
p124
g2
(F20.0
g3
(g4
g5
Ntp125
Rp126
(dp127
g9
g3
(g10
g11
(dp128
g13
F1.0
stp129
Rp130
sg16
I6548947204208569458
sbtp131
Rp132
sS'ACCELERATOR_POS_E'
p133
g2
(F9.803921568627452
g3
(g4
g5
Ntp134
Rp135
(dp136
g9
g3
(g10
g11
(dp137
g13
F1.0
stp138
Rp139
sg16
I6548947204208569458
sbtp140
Rp141
sS'SHORT_FUEL_TRIM_1'
p142
g2
(F0.78125
g3
(g4
g5
Ntp143
Rp144
(dp145
g9
g3
(g10
g11
(dp146
g13
F1.0
stp147
Rp148
sg16
I6548947204208569458
sbtp149
Rp150
sS'RUN_TIME'
p151
g2
(I282
g3
(g4
g5
Ntp152
Rp153
(dp154
g9
g3
(g10
g11
(dp155
Vsecond
p156
F1.0
stp157
Rp158
sg16
I-8637397557623547456
sbtp159
Rp160
sS'FUEL_STATUS'
p161
(S'Closed loop, using oxygen sensor feedback to determine fuel mix'
p162
g50
tp163
sS'TIMING_ADVANCE'
p164
g2
(F11.0
g3
(g4
g5
Ntp165
Rp166
(dp167
g9
g3
(g10
g11
(dp168
Vdegree
p169
F1.0
stp170
Rp171
sg16
I6323676976354968772
sbtp172
Rp173
sS'RPM'
p174
g2
(F654.0
g3
(g4
g5
Ntp175
Rp176
(dp177
g9
g3
(g10
g11
(dp178
Vrevolutions_per_minute
p179
F1.0
stp180
Rp181
sg16
I-9069124146733934765
sbtp182
Rp183
sS'EVAPORATIVE_PURGE'
p184
g2
(F27.45098039215686
g3
(g4
g5
Ntp185
Rp186
(dp187
g9
g3
(g10
g11
(dp188
g13
F1.0
stp189
Rp190
sg16
I6548947204208569458
sbtp191
Rp192
sS'STATUS'
p193
(iobd.OBDResponse
Status
p194
(dp195
g31
(iobd.OBDResponse
StatusTest
p196
(dp197
g34
I01
sg35
g31
sg36
I01
sbsg37
(iobd.OBDResponse
StatusTest
p198
(dp199
g34
I01
sg35
g37
sg36
I01
sbsg40
I00
sg41
(iobd.OBDResponse
StatusTest
p200
(dp201
g34
I00
sg35
g41
sg36
I01
sbsg44
(iobd.OBDResponse
StatusTest
p202
(dp203
g34
I01
sg35
g44
sg36
I01
sbsg47
(iobd.OBDResponse
StatusTest
p204
(dp205
g34
I00
sg35
g50
sg36
I00
sbsg51
(iobd.OBDResponse
StatusTest
p206
(dp207
g34
I01
sg35
g51
sg36
I01
sbsg54
(iobd.OBDResponse
StatusTest
p208
(dp209
g34
I01
sg35
g54
sg36
I01
sbsg57
I0
sg58
g204
sg59
(iobd.OBDResponse
StatusTest
p210
(dp211
g34
I01
sg35
g59
sg36
I01
sbsg62
(iobd.OBDResponse
StatusTest
p212
(dp213
g34
I01
sg35
g62
sg36
I01
sbsg65
g204
sg66
g204
sN(iobd.OBDResponse
StatusTest
p214
(dp215
g34
I00
sg35
Nsg36
I01
sbsg69
g204
sg70
(iobd.OBDResponse
StatusTest
p216
(dp217
g34
I01
sg35
g70
sg36
I01
sbsg73
g74
sg75
(iobd.OBDResponse
StatusTest
p218
(dp219
g34
I00
sg35
g75
sg36
I01
sbsbsS'RELATIVE_THROTTLE_POS'
p220
g2
(F4.705882352941177
g3
(g4
g5
Ntp221
Rp222
(dp223
g9
g3
(g10
g11
(dp224
g13
F1.0
stp225
Rp226
sg16
I6548947204208569458
sbtp227
Rp228
sS'EVAP_VAPOR_PRESSURE'
p229
g2
(F-172.75
g3
(g4
g5
Ntp230
Rp231
(dp232
g9
g3
(g10
g11
(dp233
Vpascal
p234
F1.0
stp235
Rp236
sg16
I768969718025819968
sbtp237
Rp238
sS'WARMUPS_SINCE_DTC_CLEAR'
p239
g2
(I255
g3
(g4
g5
Ntp240
Rp241
(dp242
g9
g3
(g10
g11
(dp243
Vcount
p244
F1.0
stp245
Rp246
sg16
I-2096556346902156826
sbtp247
Rp248
sS'COMMANDED_EGR'
p249
g2
(F0.0
g3
(g4
g5
Ntp250
Rp251
(dp252
g9
g3
(g10
g11
(dp253
g13
F1.0
stp254
Rp255
sg16
I6548947204208569458
sbtp256
Rp257
sS'INTAKE_PRESSURE'
p258
g2
(I33
g3
(g4
g5
Ntp259
Rp260
(dp261
g9
g3
(g10
g11
(dp262
Vkilopascal
p263
F1.0
stp264
Rp265
sg16
I-7845671281235440949
sbtp266
Rp267
sS'DISTANCE_W_MIL'
p268
g2
(I0
g103
tp269
Rp270
sS'BAROMETRIC_PRESSURE'
p271
g2
(I82
g3
(g4
g5
Ntp272
Rp273
(dp274
g9
g3
(g10
g11
(dp275
g263
F1.0
stp276
Rp277
sg16
I-7845671281235440949
sbtp278
Rp279
sS'O2_B1S2'
p280
g2
(F0.47
g3
(g4
g5
Ntp281
Rp282
(dp283
g9
g3
(g10
g11
(dp284
Vvolt
p285
F1.0
stp286
Rp287
sg16
I7290002954643895435
sbtp288
Rp289
sS'LONG_FUEL_TRIM_1'
p290
g2
(F-4.6875
g3
(g4
g5
Ntp291
Rp292
(dp293
g9
g3
(g10
g11
(dp294
g13
F1.0
stp295
Rp296
sg16
I6548947204208569458
sbtp297
Rp298
sS'THROTTLE_POS_B'
p299
g2
(F32.15686274509804
g3
(g4
g5
Ntp300
Rp301
(dp302
g9
g3
(g10
g11
(dp303
g13
F1.0
stp304
Rp305
sg16
I6548947204208569458
sbtp306
Rp307
sS'THROTTLE_POS'
p308
g2
(F15.294117647058824
g3
(g4
g5
Ntp309
Rp310
(dp311
g9
g3
(g10
g11
(dp312
g13
F1.0
stp313
Rp314
sg16
I6548947204208569458
sbtp315
Rp316
sS'CATALYST_TEMP_B1S1'
p317
g2
(F312.8
g80
tp318
Rp319
sS'CONTROL_MODULE_VOLTAGE'
p320
g2
(F14.200000000000001
g3
(g4
g5
Ntp321
Rp322
(dp323
g9
g3
(g10
g11
(dp324
g285
F1.0
stp325
Rp326
sg16
I7290002954643895435
sbtp327
Rp328
sS'THROTTLE_ACTUATOR'
p329
g2
(F5.098039215686274
g3
(g4
g5
Ntp330
Rp331
(dp332
g9
g3
(g10
g11
(dp333
g13
F1.0
stp334
Rp335
sg16
I6548947204208569458
sbtp336
Rp337
sS'FUEL_LEVEL'
p338
g2
(F75.29411764705883
g3
(g4
g5
Ntp339
Rp340
(dp341
g9
g3
(g10
g11
(dp342
g13
F1.0
stp343
Rp344
sg16
I6548947204208569458
sbtp345
Rp346
sS'COMMANDED_EQUIV_RATIO'
p347
g2
(F0.9992715
g3
(g4
g5
Ntp348
Rp349
(dp350
g9
g3
(g10
g11
(dp351
Vratio
p352
F1.0
stp353
Rp354
sg16
I-5424332155707351446
sbtp355
Rp356
sS'MAF'
p357
g2
(F3.24
g3
(g4
g5
Ntp358
Rp359
(dp360
g9
g3
(g10
g11
(dp361
Vgps
p362
F1.0
stp363
Rp364
sg16
I4756223975541390489
sbtp365
Rp366
sS'SPEED'
p367
g2
(I0
g3
(g4
g5
Ntp368
Rp369
(dp370
g9
g3
(g10
g11
(dp371
Vkph
p372
F1.0
stp373
Rp374
sg16
I4328554120617486590
sbtp375
Rp376
s.(dp0
S'ABSOLUTE_LOAD'
p1
cpint
_build_quantity
p2
(F19.215686274509803
ccopy_reg
_reconstructor
p3
(cpint.util
UnitsContainer
p4
c__builtin__
object
p5
Ntp6
Rp7
(dp8
V_d
p9
g3
(cpint.util
udict
p10
c__builtin__
dict
p11
(dp12
Vpercent
p13
F1.0
stp14
Rp15
sV_hash
p16
I6548947204208569458
sbtp17
Rp18
sS'ENGINE_LOAD'
p19
g2
(F38.431372549019606
g3
(g4
g5
Ntp20
Rp21
(dp22
g9
g3
(g10
g11
(dp23
g13
F1.0
stp24
Rp25
sg16
I6548947204208569458
sbtp26
Rp27
sS'STATUS_DRIVE_CYCLE'
p28
(iobd.OBDResponse
Status
p29
(dp30
S'FUEL_SYSTEM_MONITORING'
p31
(iobd.OBDResponse
StatusTest
p32
(dp33
S'available'
p34
I01
sS'name'
p35
g31
sS'complete'
p36
I01
sbsS'MISFIRE_MONITORING'
p37
(iobd.OBDResponse
StatusTest
p38
(dp39
g34
I01
sg35
g37
sg36
I01
sbsS'MIL'
p40
I00
sS'HEATED_CATALYST_MONITORING'
p41
(iobd.OBDResponse
StatusTest
p42
(dp43
g34
I00
sg35
g41
sg36
I01
sbsS'COMPONENT_MONITORING'
p44
(iobd.OBDResponse
StatusTest
p45
(dp46
g34
I01
sg35
g44
sg36
I01
sbsS'PM_FILTER_MONITORING'
p47
(iobd.OBDResponse
StatusTest
p48
(dp49
g34
I00
sg35
S''
p50
sg36
I00
sbsS'OXYGEN_SENSOR_MONITORING'
p51
(iobd.OBDResponse
StatusTest
p52
(dp53
g34
I01
sg35
g51
sg36
I00
sbsS'EGR_VVT_SYSTEM_MONITORING'
p54
(iobd.OBDResponse
StatusTest
p55
(dp56
g34
I01
sg35
g54
sg36
I00
sbsS'DTC_count'
p57
I0
sS'NMHC_CATALYST_MONITORING'
p58
g48
sS'EVAPORATIVE_SYSTEM_MONITORING'
p59
(iobd.OBDResponse
StatusTest
p60
(dp61
g34
I00
sg35
g59
sg36
I00
sbsS'CATALYST_MONITORING'
p62
(iobd.OBDResponse
StatusTest
p63
(dp64
g34
I01
sg35
g62
sg36
I00
sbsS'NOX_SCR_AFTERTREATMENT_MONITORING'
p65
g48
sS'BOOST_PRESSURE_MONITORING'
p66
g48
sN(iobd.OBDResponse
StatusTest
p67
(dp68
g34
I00
sg35
Nsg36
I01
sbsS'EXHAUST_GAS_SENSOR_MONITORING'
p69
g48
sS'OXYGEN_SENSOR_HEATER_MONITORING'
p70
(iobd.OBDResponse
StatusTest
p71
(dp72
g34
I01
sg35
g70
sg36
I01
sbsS'ignition_type'
p73
S'spark'
p74
sS'SECONDARY_AIR_SYSTEM_MONITORING'
p75
(iobd.OBDResponse
StatusTest
p76
(dp77
g34
I00
sg35
g75
sg36
I01
sbsbsS'INTAKE_TEMP'
p78
g2
(I28
g3
(g4
g5
Ntp79
Rp80
(dp81
g9
g3
(g10
g11
(dp82
VdegC
p83
F1.0
stp84
Rp85
sg16
I-5578095454197246211
sbtp86
Rp87
sS'COOLANT_TEMP'
p88
g2
(I85
g80
tp89
Rp90
sS'O2_S1_WR_CURRENT'
p91
g2
(F0.0078125
g3
(g4
g5
Ntp92
Rp93
(dp94
g9
g3
(g10
g11
(dp95
Vmilliampere
p96
F1.0
stp97
Rp98
sg16
I-2536645046832034426
sbtp99
Rp100
sS'DISTANCE_SINCE_DTC_CLEAR'
p101
g2
(I8499
g3
(g4
g5
Ntp102
Rp103
(dp104
g9
g3
(g10
g11
(dp105
Vkilometer
p106
F1.0
stp107
Rp108
sg16
I-4412262003307283843
sbtp109
Rp110
sS'O2_SENSORS'
p111
((t(I00
I00
I00
I00
tp112
(I00
I00
I01
I01
tp113
tp114
sS'EGR_ERROR'
p115
g2
(F99.21875
g3
(g4
g5
Ntp116
Rp117
(dp118
g9
g3
(g10
g11
(dp119
g13
F1.0
stp120
Rp121
sg16
I6548947204208569458
sbtp122
Rp123
sS'ACCELERATOR_POS_D'
p124
g2
(F20.0
g3
(g4
g5
Ntp125
Rp126
(dp127
g9
g3
(g10
g11
(dp128
g13
F1.0
stp129
Rp130
sg16
I6548947204208569458
sbtp131
Rp132
sS'ACCELERATOR_POS_E'
p133
g2
(F9.803921568627452
g3
(g4
g5
Ntp134
Rp135
(dp136
g9
g3
(g10
g11
(dp137
g13
F1.0
stp138
Rp139
sg16
I6548947204208569458
sbtp140
Rp141
sS'SHORT_FUEL_TRIM_1'
p142
g2
(F0.78125
g3
(g4
g5
Ntp143
Rp144
(dp145
g9
g3
(g10
g11
(dp146
g13
F1.0
stp147
Rp148
sg16
I6548947204208569458
sbtp149
Rp150
sS'RUN_TIME'
p151
g2
(I288
g3
(g4
g5
Ntp152
Rp153
(dp154
g9
g3
(g10
g11
(dp155
Vsecond
p156
F1.0
stp157
Rp158
sg16
I-8637397557623547456
sbtp159
Rp160
sS'FUEL_STATUS'
p161
(S'Closed loop, using oxygen sensor feedback to determine fuel mix'
p162
g50
tp163
sS'TIMING_ADVANCE'
p164
g2
(F7.0
g3
(g4
g5
Ntp165
Rp166
(dp167
g9
g3
(g10
g11
(dp168
Vdegree
p169
F1.0
stp170
Rp171
sg16
I6323676976354968772
sbtp172
Rp173
sS'RPM'
p174
g2
(F674.0
g3
(g4
g5
Ntp175
Rp176
(dp177
g9
g3
(g10
g11
(dp178
Vrevolutions_per_minute
p179
F1.0
stp180
Rp181
sg16
I-9069124146733934765
sbtp182
Rp183
sS'EVAPORATIVE_PURGE'
p184
g2
(F26.666666666666668
g3
(g4
g5
Ntp185
Rp186
(dp187
g9
g3
(g10
g11
(dp188
g13
F1.0
stp189
Rp190
sg16
I6548947204208569458
sbtp191
Rp192
sS'STATUS'
p193
(iobd.OBDResponse
Status
p194
(dp195
g31
(iobd.OBDResponse
StatusTest
p196
(dp197
g34
I01
sg35
g31
sg36
I01
sbsg37
(iobd.OBDResponse
StatusTest
p198
(dp199
g34
I01
sg35
g37
sg36
I01
sbsg40
I00
sg41
(iobd.OBDResponse
StatusTest
p200
(dp201
g34
I00
sg35
g41
sg36
I01
sbsg44
(iobd.OBDResponse
StatusTest
p202
(dp203
g34
I01
sg35
g44
sg36
I01
sbsg47
(iobd.OBDResponse
StatusTest
p204
(dp205
g34
I00
sg35
g50
sg36
I00
sbsg51
(iobd.OBDResponse
StatusTest
p206
(dp207
g34
I01
sg35
g51
sg36
I01
sbsg54
(iobd.OBDResponse
StatusTest
p208
(dp209
g34
I01
sg35
g54
sg36
I01
sbsg57
I0
sg58
g204
sg59
(iobd.OBDResponse
StatusTest
p210
(dp211
g34
I01
sg35
g59
sg36
I01
sbsg62
(iobd.OBDResponse
StatusTest
p212
(dp213
g34
I01
sg35
g62
sg36
I01
sbsg65
g204
sg66
g204
sN(iobd.OBDResponse
StatusTest
p214
(dp215
g34
I00
sg35
Nsg36
I01
sbsg69
g204
sg70
(iobd.OBDResponse
StatusTest
p216
(dp217
g34
I01
sg35
g70
sg36
I01
sbsg73
g74
sg75
(iobd.OBDResponse
StatusTest
p218
(dp219
g34
I00
sg35
g75
sg36
I01
sbsbsS'RELATIVE_THROTTLE_POS'
p220
g2
(F2.7450980392156863
g3
(g4
g5
Ntp221
Rp222
(dp223
g9
g3
(g10
g11
(dp224
g13
F1.0
stp225
Rp226
sg16
I6548947204208569458
sbtp227
Rp228
sS'EVAP_VAPOR_PRESSURE'
p229
g2
(F-172.75
g3
(g4
g5
Ntp230
Rp231
(dp232
g9
g3
(g10
g11
(dp233
Vpascal
p234
F1.0
stp235
Rp236
sg16
I768969718025819968
sbtp237
Rp238
sS'WARMUPS_SINCE_DTC_CLEAR'
p239
g2
(I255
g3
(g4
g5
Ntp240
Rp241
(dp242
g9
g3
(g10
g11
(dp243
Vcount
p244
F1.0
stp245
Rp246
sg16
I-2096556346902156826
sbtp247
Rp248
sS'COMMANDED_EGR'
p249
g2
(F0.0
g3
(g4
g5
Ntp250
Rp251
(dp252
g9
g3
(g10
g11
(dp253
g13
F1.0
stp254
Rp255
sg16
I6548947204208569458
sbtp256
Rp257
sS'INTAKE_PRESSURE'
p258
g2
(I29
g3
(g4
g5
Ntp259
Rp260
(dp261
g9
g3
(g10
g11
(dp262
Vkilopascal
p263
F1.0
stp264
Rp265
sg16
I-7845671281235440949
sbtp266
Rp267
sS'DISTANCE_W_MIL'
p268
g2
(I0
g103
tp269
Rp270
sS'BAROMETRIC_PRESSURE'
p271
g2
(I82
g3
(g4
g5
Ntp272
Rp273
(dp274
g9
g3
(g10
g11
(dp275
g263
F1.0
stp276
Rp277
sg16
I-7845671281235440949
sbtp278
Rp279
sS'O2_B1S2'
p280
g2
(F0.185
g3
(g4
g5
Ntp281
Rp282
(dp283
g9
g3
(g10
g11
(dp284
Vvolt
p285
F1.0
stp286
Rp287
sg16
I7290002954643895435
sbtp288
Rp289
sS'LONG_FUEL_TRIM_1'
p290
g2
(F-4.6875
g3
(g4
g5
Ntp291
Rp292
(dp293
g9
g3
(g10
g11
(dp294
g13
F1.0
stp295
Rp296
sg16
I6548947204208569458
sbtp297
Rp298
sS'THROTTLE_POS_B'
p299
g2
(F31.764705882352942
g3
(g4
g5
Ntp300
Rp301
(dp302
g9
g3
(g10
g11
(dp303
g13
F1.0
stp304
Rp305
sg16
I6548947204208569458
sbtp306
Rp307
sS'THROTTLE_POS'
p308
g2
(F14.509803921568627
g3
(g4
g5
Ntp309
Rp310
(dp311
g9
g3
(g10
g11
(dp312
g13
F1.0
stp313
Rp314
sg16
I6548947204208569458
sbtp315
Rp316
sS'CATALYST_TEMP_B1S1'
p317
g2
(F316.0
g80
tp318
Rp319
sS'CONTROL_MODULE_VOLTAGE'
p320
g2
(F14.325000000000001
g3
(g4
g5
Ntp321
Rp322
(dp323
g9
g3
(g10
g11
(dp324
g285
F1.0
stp325
Rp326
sg16
I7290002954643895435
sbtp327
Rp328
sS'THROTTLE_ACTUATOR'
p329
g2
(F3.5294117647058822
g3
(g4
g5
Ntp330
Rp331
(dp332
g9
g3
(g10
g11
(dp333
g13
F1.0
stp334
Rp335
sg16
I6548947204208569458
sbtp336
Rp337
sS'FUEL_LEVEL'
p338
g2
(F75.29411764705883
g3
(g4
g5
Ntp339
Rp340
(dp341
g9
g3
(g10
g11
(dp342
g13
F1.0
stp343
Rp344
sg16
I6548947204208569458
sbtp345
Rp346
sS'COMMANDED_EQUIV_RATIO'
p347
g2
(F0.992104
g3
(g4
g5
Ntp348
Rp349
(dp350
g9
g3
(g10
g11
(dp351
Vratio
p352
F1.0
stp353
Rp354
sg16
I-5424332155707351446
sbtp355
Rp356
sS'MAF'
p357
g2
(F2.34
g3
(g4
g5
Ntp358
Rp359
(dp360
g9
g3
(g10
g11
(dp361
Vgps
p362
F1.0
stp363
Rp364
sg16
I4756223975541390489
sbtp365
Rp366
sS'SPEED'
p367
g2
(I0
g3
(g4
g5
Ntp368
Rp369
(dp370
g9
g3
(g10
g11
(dp371
Vkph
p372
F1.0
stp373
Rp374
sg16
I4328554120617486590
sbtp375
Rp376
s.(dp0
S'ABSOLUTE_LOAD'
p1
cpint
_build_quantity
p2
(F14.509803921568627
ccopy_reg
_reconstructor
p3
(cpint.util
UnitsContainer
p4
c__builtin__
object
p5
Ntp6
Rp7
(dp8
V_d
p9
g3
(cpint.util
udict
p10
c__builtin__
dict
p11
(dp12
Vpercent
p13
F1.0
stp14
Rp15
sV_hash
p16
I6548947204208569458
sbtp17
Rp18
sS'ENGINE_LOAD'
p19
g2
(F29.41176470588235
g3
(g4
g5
Ntp20
Rp21
(dp22
g9
g3
(g10
g11
(dp23
g13
F1.0
stp24
Rp25
sg16
I6548947204208569458
sbtp26
Rp27
sS'STATUS_DRIVE_CYCLE'
p28
(iobd.OBDResponse
Status
p29
(dp30
S'FUEL_SYSTEM_MONITORING'
p31
(iobd.OBDResponse
StatusTest
p32
(dp33
S'available'
p34
I01
sS'name'
p35
g31
sS'complete'
p36
I01
sbsS'MISFIRE_MONITORING'
p37
(iobd.OBDResponse
StatusTest
p38
(dp39
g34
I01
sg35
g37
sg36
I01
sbsS'MIL'
p40
I00
sS'HEATED_CATALYST_MONITORING'
p41
(iobd.OBDResponse
StatusTest
p42
(dp43
g34
I00
sg35
g41
sg36
I01
sbsS'COMPONENT_MONITORING'
p44
(iobd.OBDResponse
StatusTest
p45
(dp46
g34
I01
sg35
g44
sg36
I01
sbsS'PM_FILTER_MONITORING'
p47
(iobd.OBDResponse
StatusTest
p48
(dp49
g34
I00
sg35
S''
p50
sg36
I00
sbsS'OXYGEN_SENSOR_MONITORING'
p51
(iobd.OBDResponse
StatusTest
p52
(dp53
g34
I01
sg35
g51
sg36
I00
sbsS'EGR_VVT_SYSTEM_MONITORING'
p54
(iobd.OBDResponse
StatusTest
p55
(dp56
g34
I01
sg35
g54
sg36
I00
sbsS'DTC_count'
p57
I0
sS'NMHC_CATALYST_MONITORING'
p58
g48
sS'EVAPORATIVE_SYSTEM_MONITORING'
p59
(iobd.OBDResponse
StatusTest
p60
(dp61
g34
I00
sg35
g59
sg36
I00
sbsS'CATALYST_MONITORING'
p62
(iobd.OBDResponse
StatusTest
p63
(dp64
g34
I01
sg35
g62
sg36
I00
sbsS'NOX_SCR_AFTERTREATMENT_MONITORING'
p65
g48
sS'BOOST_PRESSURE_MONITORING'
p66
g48
sN(iobd.OBDResponse
StatusTest
p67
(dp68
g34
I00
sg35
Nsg36
I01
sbsS'EXHAUST_GAS_SENSOR_MONITORING'
p69
g48
sS'OXYGEN_SENSOR_HEATER_MONITORING'
p70
(iobd.OBDResponse
StatusTest
p71
(dp72
g34
I01
sg35
g70
sg36
I01
sbsS'ignition_type'
p73
S'spark'
p74
sS'SECONDARY_AIR_SYSTEM_MONITORING'
p75
(iobd.OBDResponse
StatusTest
p76
(dp77
g34
I00
sg35
g75
sg36
I01
sbsbsS'INTAKE_TEMP'
p78
g2
(I29
g3
(g4
g5
Ntp79
Rp80
(dp81
g9
g3
(g10
g11
(dp82
VdegC
p83
F1.0
stp84
Rp85
sg16
I-5578095454197246211
sbtp86
Rp87
sS'COOLANT_TEMP'
p88
g2
(I85
g80
tp89
Rp90
sS'O2_S1_WR_CURRENT'
p91
g2
(F-0.00390625
g3
(g4
g5
Ntp92
Rp93
(dp94
g9
g3
(g10
g11
(dp95
Vmilliampere
p96
F1.0
stp97
Rp98
sg16
I-2536645046832034426
sbtp99
Rp100
sS'DISTANCE_SINCE_DTC_CLEAR'
p101
g2
(I8499
g3
(g4
g5
Ntp102
Rp103
(dp104
g9
g3
(g10
g11
(dp105
Vkilometer
p106
F1.0
stp107
Rp108
sg16
I-4412262003307283843
sbtp109
Rp110
sS'O2_SENSORS'
p111
((t(I00
I00
I00
I00
tp112
(I00
I00
I01
I01
tp113
tp114
sS'EGR_ERROR'
p115
g2
(F99.21875
g3
(g4
g5
Ntp116
Rp117
(dp118
g9
g3
(g10
g11
(dp119
g13
F1.0
stp120
Rp121
sg16
I6548947204208569458
sbtp122
Rp123
sS'ACCELERATOR_POS_D'
p124
g2
(F20.0
g3
(g4
g5
Ntp125
Rp126
(dp127
g9
g3
(g10
g11
(dp128
g13
F1.0
stp129
Rp130
sg16
I6548947204208569458
sbtp131
Rp132
sS'ACCELERATOR_POS_E'
p133
g2
(F9.803921568627452
g3
(g4
g5
Ntp134
Rp135
(dp136
g9
g3
(g10
g11
(dp137
g13
F1.0
stp138
Rp139
sg16
I6548947204208569458
sbtp140
Rp141
sS'SHORT_FUEL_TRIM_1'
p142
g2
(F0.78125
g3
(g4
g5
Ntp143
Rp144
(dp145
g9
g3
(g10
g11
(dp146
g13
F1.0
stp147
Rp148
sg16
I6548947204208569458
sbtp149
Rp150
sS'RUN_TIME'
p151
g2
(I293
g3
(g4
g5
Ntp152
Rp153
(dp154
g9
g3
(g10
g11
(dp155
Vsecond
p156
F1.0
stp157
Rp158
sg16
I-8637397557623547456
sbtp159
Rp160
sS'FUEL_STATUS'
p161
(S'Closed loop, using oxygen sensor feedback to determine fuel mix'
p162
g50
tp163
sS'TIMING_ADVANCE'
p164
g2
(F8.0
g3
(g4
g5
Ntp165
Rp166
(dp167
g9
g3
(g10
g11
(dp168
Vdegree
p169
F1.0
stp170
Rp171
sg16
I6323676976354968772
sbtp172
Rp173
sS'RPM'
p174
g2
(F669.0
g3
(g4
g5
Ntp175
Rp176
(dp177
g9
g3
(g10
g11
(dp178
Vrevolutions_per_minute
p179
F1.0
stp180
Rp181
sg16
I-9069124146733934765
sbtp182
Rp183
sS'EVAPORATIVE_PURGE'
p184
g2
(F27.058823529411764
g3
(g4
g5
Ntp185
Rp186
(dp187
g9
g3
(g10
g11
(dp188
g13
F1.0
stp189
Rp190
sg16
I6548947204208569458
sbtp191
Rp192
sS'STATUS'
p193
(iobd.OBDResponse
Status
p194
(dp195
g31
(iobd.OBDResponse
StatusTest
p196
(dp197
g34
I01
sg35
g31
sg36
I01
sbsg37
(iobd.OBDResponse
StatusTest
p198
(dp199
g34
I01
sg35
g37
sg36
I01
sbsg40
I00
sg41
(iobd.OBDResponse
StatusTest
p200
(dp201
g34
I00
sg35
g41
sg36
I01
sbsg44
(iobd.OBDResponse
StatusTest
p202
(dp203
g34
I01
sg35
g44
sg36
I01
sbsg47
(iobd.OBDResponse
StatusTest
p204
(dp205
g34
I00
sg35
g50
sg36
I00
sbsg51
(iobd.OBDResponse
StatusTest
p206
(dp207
g34
I01
sg35
g51
sg36
I01
sbsg54
(iobd.OBDResponse
StatusTest
p208
(dp209
g34
I01
sg35
g54
sg36
I01
sbsg57
I0
sg58
g204
sg59
(iobd.OBDResponse
StatusTest
p210
(dp211
g34
I01
sg35
g59
sg36
I01
sbsg62
(iobd.OBDResponse
StatusTest
p212
(dp213
g34
I01
sg35
g62
sg36
I01
sbsg65
g204
sg66
g204
sN(iobd.OBDResponse
StatusTest
p214
(dp215
g34
I00
sg35
Nsg36
I01
sbsg69
g204
sg70
(iobd.OBDResponse
StatusTest
p216
(dp217
g34
I01
sg35
g70
sg36
I01
sbsg73
g74
sg75
(iobd.OBDResponse
StatusTest
p218
(dp219
g34
I00
sg35
g75
sg36
I01
sbsbsS'RELATIVE_THROTTLE_POS'
p220
g2
(F2.7450980392156863
g3
(g4
g5
Ntp221
Rp222
(dp223
g9
g3
(g10
g11
(dp224
g13
F1.0
stp225
Rp226
sg16
I6548947204208569458
sbtp227
Rp228
sS'EVAP_VAPOR_PRESSURE'
p229
g2
(F-172.75
g3
(g4
g5
Ntp230
Rp231
(dp232
g9
g3
(g10
g11
(dp233
Vpascal
p234
F1.0
stp235
Rp236
sg16
I768969718025819968
sbtp237
Rp238
sS'WARMUPS_SINCE_DTC_CLEAR'
p239
g2
(I255
g3
(g4
g5
Ntp240
Rp241
(dp242
g9
g3
(g10
g11
(dp243
Vcount
p244
F1.0
stp245
Rp246
sg16
I-2096556346902156826
sbtp247
Rp248
sS'COMMANDED_EGR'
p249
g2
(F0.0
g3
(g4
g5
Ntp250
Rp251
(dp252
g9
g3
(g10
g11
(dp253
g13
F1.0
stp254
Rp255
sg16
I6548947204208569458
sbtp256
Rp257
sS'INTAKE_PRESSURE'
p258
g2
(I24
g3
(g4
g5
Ntp259
Rp260
(dp261
g9
g3
(g10
g11
(dp262
Vkilopascal
p263
F1.0
stp264
Rp265
sg16
I-7845671281235440949
sbtp266
Rp267
sS'DISTANCE_W_MIL'
p268
g2
(I0
g103
tp269
Rp270
sS'BAROMETRIC_PRESSURE'
p271
g2
(I82
g3
(g4
g5
Ntp272
Rp273
(dp274
g9
g3
(g10
g11
(dp275
g263
F1.0
stp276
Rp277
sg16
I-7845671281235440949
sbtp278
Rp279
sS'O2_B1S2'
p280
g2
(F0.105
g3
(g4
g5
Ntp281
Rp282
(dp283
g9
g3
(g10
g11
(dp284
Vvolt
p285
F1.0
stp286
Rp287
sg16
I7290002954643895435
sbtp288
Rp289
sS'LONG_FUEL_TRIM_1'
p290
g2
(F-4.6875
g3
(g4
g5
Ntp291
Rp292
(dp293
g9
g3
(g10
g11
(dp294
g13
F1.0
stp295
Rp296
sg16
I6548947204208569458
sbtp297
Rp298
sS'THROTTLE_POS_B'
p299
g2
(F31.372549019607842
g3
(g4
g5
Ntp300
Rp301
(dp302
g9
g3
(g10
g11
(dp303
g13
F1.0
stp304
Rp305
sg16
I6548947204208569458
sbtp306
Rp307
sS'THROTTLE_POS'
p308
g2
(F14.117647058823529
g3
(g4
g5
Ntp309
Rp310
(dp311
g9
g3
(g10
g11
(dp312
g13
F1.0
stp313
Rp314
sg16
I6548947204208569458
sbtp315
Rp316
sS'CATALYST_TEMP_B1S1'
p317
g2
(F318.8
g80
tp318
Rp319
sS'CONTROL_MODULE_VOLTAGE'
p320
g2
(F14.25
g3
(g4
g5
Ntp321
Rp322
(dp323
g9
g3
(g10
g11
(dp324
g285
F1.0
stp325
Rp326
sg16
I7290002954643895435
sbtp327
Rp328
sS'THROTTLE_ACTUATOR'
p329
g2
(F2.7450980392156863
g3
(g4
g5
Ntp330
Rp331
(dp332
g9
g3
(g10
g11
(dp333
g13
F1.0
stp334
Rp335
sg16
I6548947204208569458
sbtp336
Rp337
sS'FUEL_LEVEL'
p338
g2
(F75.29411764705883
g3
(g4
g5
Ntp339
Rp340
(dp341
g9
g3
(g10
g11
(dp342
g13
F1.0
stp343
Rp344
sg16
I6548947204208569458
sbtp345
Rp346
sS'COMMANDED_EQUIV_RATIO'
p347
g2
(F0.992104
g3
(g4
g5
Ntp348
Rp349
(dp350
g9
g3
(g10
g11
(dp351
Vratio
p352
F1.0
stp353
Rp354
sg16
I-5424332155707351446
sbtp355
Rp356
sS'MAF'
p357
g2
(F1.71
g3
(g4
g5
Ntp358
Rp359
(dp360
g9
g3
(g10
g11
(dp361
Vgps
p362
F1.0
stp363
Rp364
sg16
I4756223975541390489
sbtp365
Rp366
sS'SPEED'
p367
g2
(I0
g3
(g4
g5
Ntp368
Rp369
(dp370
g9
g3
(g10
g11
(dp371
Vkph
p372
F1.0
stp373
Rp374
sg16
I4328554120617486590
sbtp375
Rp376
s.